
mt-vvadd.riscv      檔案格式 elf64-littleriscv


.text.init 區段的反組譯：

0000000000000000 <_start>:
   0:	4081                	li	ra,0
   2:	4101                	li	sp,0
   4:	4181                	li	gp,0
   6:	4201                	li	tp,0
   8:	4281                	li	t0,0
   a:	4301                	li	t1,0
   c:	4381                	li	t2,0
   e:	4401                	li	s0,0
  10:	4481                	li	s1,0
  12:	4501                	li	a0,0
  14:	4581                	li	a1,0
  16:	4601                	li	a2,0
  18:	4681                	li	a3,0
  1a:	4701                	li	a4,0
  1c:	4781                	li	a5,0
  1e:	4801                	li	a6,0
  20:	4881                	li	a7,0
  22:	4901                	li	s2,0
  24:	4981                	li	s3,0
  26:	4a01                	li	s4,0
  28:	4a81                	li	s5,0
  2a:	4b01                	li	s6,0
  2c:	4b81                	li	s7,0
  2e:	4c01                	li	s8,0
  30:	4c81                	li	s9,0
  32:	4d01                	li	s10,0
  34:	4d81                	li	s11,0
  36:	4e01                	li	t3,0
  38:	4e81                	li	t4,0
  3a:	4f01                	li	t5,0
  3c:	4f81                	li	t6,0
  3e:	62f9                	lui	t0,0x1e
  40:	3002a073          	csrs	mstatus,t0
  44:	4285                	li	t0,1
  46:	02fe                	slli	t0,t0,0x1f
  48:	0002d863          	bgez	t0,58 <buf.2+0x18>
  4c:	4505                	li	a0,1
  4e:	00001297          	auipc	t0,0x1
  52:	faa2a923          	sw	a0,-78(t0) # 1000 <tohost>
  56:	bfdd                	j	4c <buf.2+0xc>
  58:	00000297          	auipc	t0,0x0
  5c:	09028293          	addi	t0,t0,144 # e8 <buflen.1+0x68>
  60:	30529073          	csrw	mtvec,t0
  64:	00301073          	fscsr	zero
  68:	f0000053          	fmv.w.x	ft0,zero
  6c:	f00000d3          	fmv.w.x	ft1,zero
  70:	f0000153          	fmv.w.x	ft2,zero
  74:	f00001d3          	fmv.w.x	ft3,zero
  78:	f0000253          	fmv.w.x	ft4,zero
  7c:	f00002d3          	fmv.w.x	ft5,zero
  80:	f0000353          	fmv.w.x	ft6,zero
  84:	f00003d3          	fmv.w.x	ft7,zero
  88:	f0000453          	fmv.w.x	fs0,zero
  8c:	f00004d3          	fmv.w.x	fs1,zero
  90:	f0000553          	fmv.w.x	fa0,zero
  94:	f00005d3          	fmv.w.x	fa1,zero
  98:	f0000653          	fmv.w.x	fa2,zero
  9c:	f00006d3          	fmv.w.x	fa3,zero
  a0:	f0000753          	fmv.w.x	fa4,zero
  a4:	f00007d3          	fmv.w.x	fa5,zero
  a8:	f0000853          	fmv.w.x	fa6,zero
  ac:	f00008d3          	fmv.w.x	fa7,zero
  b0:	f0000953          	fmv.w.x	fs2,zero
  b4:	f00009d3          	fmv.w.x	fs3,zero
  b8:	f0000a53          	fmv.w.x	fs4,zero
  bc:	f0000ad3          	fmv.w.x	fs5,zero
  c0:	f0000b53          	fmv.w.x	fs6,zero
  c4:	f0000bd3          	fmv.w.x	fs7,zero
  c8:	f0000c53          	fmv.w.x	fs8,zero
  cc:	f0000cd3          	fmv.w.x	fs9,zero
  d0:	f0000d53          	fmv.w.x	fs10,zero
  d4:	f0000dd3          	fmv.w.x	fs11,zero
  d8:	f0000e53          	fmv.w.x	ft8,zero
  dc:	f0000ed3          	fmv.w.x	ft9,zero
  e0:	f0000f53          	fmv.w.x	ft10,zero
  e4:	f0000fd3          	fmv.w.x	ft11,zero
  e8:	00000297          	auipc	t0,0x0
  ec:	03c28293          	addi	t0,t0,60 # 124 <trap_entry>
  f0:	30529073          	csrw	mtvec,t0
  f4:	00009197          	auipc	gp,0x9
  f8:	dec18193          	addi	gp,gp,-532 # 8ee0 <__global_pointer$>
  fc:	0000b217          	auipc	tp,0xb
 100:	84320213          	addi	tp,tp,-1981 # a93f <_end+0x3f>
 104:	fc027213          	andi	tp,tp,-64
 108:	f1402573          	csrr	a0,mhartid
 10c:	4585                	li	a1,1
 10e:	00b57063          	bgeu	a0,a1,10e <buflen.1+0x8e>
 112:	00150113          	addi	sp,a0,1
 116:	0146                	slli	sp,sp,0x11
 118:	9112                	add	sp,sp,tp
 11a:	01151613          	slli	a2,a0,0x11
 11e:	9232                	add	tp,tp,a2
 120:	6480206f          	j	2768 <_init>

0000000000000124 <trap_entry>:
 124:	716d                	addi	sp,sp,-272
 126:	e406                	sd	ra,8(sp)
 128:	e80a                	sd	sp,16(sp)
 12a:	ec0e                	sd	gp,24(sp)
 12c:	f012                	sd	tp,32(sp)
 12e:	f416                	sd	t0,40(sp)
 130:	f81a                	sd	t1,48(sp)
 132:	fc1e                	sd	t2,56(sp)
 134:	e0a2                	sd	s0,64(sp)
 136:	e4a6                	sd	s1,72(sp)
 138:	e8aa                	sd	a0,80(sp)
 13a:	ecae                	sd	a1,88(sp)
 13c:	f0b2                	sd	a2,96(sp)
 13e:	f4b6                	sd	a3,104(sp)
 140:	f8ba                	sd	a4,112(sp)
 142:	fcbe                	sd	a5,120(sp)
 144:	e142                	sd	a6,128(sp)
 146:	e546                	sd	a7,136(sp)
 148:	e94a                	sd	s2,144(sp)
 14a:	ed4e                	sd	s3,152(sp)
 14c:	f152                	sd	s4,160(sp)
 14e:	f556                	sd	s5,168(sp)
 150:	f95a                	sd	s6,176(sp)
 152:	fd5e                	sd	s7,184(sp)
 154:	e1e2                	sd	s8,192(sp)
 156:	e5e6                	sd	s9,200(sp)
 158:	e9ea                	sd	s10,208(sp)
 15a:	edee                	sd	s11,216(sp)
 15c:	f1f2                	sd	t3,224(sp)
 15e:	f5f6                	sd	t4,232(sp)
 160:	f9fa                	sd	t5,240(sp)
 162:	fdfe                	sd	t6,248(sp)
 164:	34202573          	csrr	a0,mcause
 168:	341025f3          	csrr	a1,mepc
 16c:	860a                	mv	a2,sp
 16e:	442020ef          	jal	ra,25b0 <handle_trap>
 172:	34151073          	csrw	mepc,a0
 176:	6289                	lui	t0,0x2
 178:	8002829b          	addiw	t0,t0,-2048 # 1800 <fromhost+0x7c0>
 17c:	3002a073          	csrs	mstatus,t0
 180:	60a2                	ld	ra,8(sp)
 182:	6142                	ld	sp,16(sp)
 184:	61e2                	ld	gp,24(sp)
 186:	7202                	ld	tp,32(sp)
 188:	72a2                	ld	t0,40(sp)
 18a:	7342                	ld	t1,48(sp)
 18c:	73e2                	ld	t2,56(sp)
 18e:	6406                	ld	s0,64(sp)
 190:	64a6                	ld	s1,72(sp)
 192:	6546                	ld	a0,80(sp)
 194:	65e6                	ld	a1,88(sp)
 196:	7606                	ld	a2,96(sp)
 198:	76a6                	ld	a3,104(sp)
 19a:	7746                	ld	a4,112(sp)
 19c:	77e6                	ld	a5,120(sp)
 19e:	680a                	ld	a6,128(sp)
 1a0:	68aa                	ld	a7,136(sp)
 1a2:	694a                	ld	s2,144(sp)
 1a4:	69ea                	ld	s3,152(sp)
 1a6:	7a0a                	ld	s4,160(sp)
 1a8:	7aaa                	ld	s5,168(sp)
 1aa:	7b4a                	ld	s6,176(sp)
 1ac:	7bea                	ld	s7,184(sp)
 1ae:	6c0e                	ld	s8,192(sp)
 1b0:	6cae                	ld	s9,200(sp)
 1b2:	6d4e                	ld	s10,208(sp)
 1b4:	6dee                	ld	s11,216(sp)
 1b6:	7e0e                	ld	t3,224(sp)
 1b8:	7eae                	ld	t4,232(sp)
 1ba:	7f4e                	ld	t5,240(sp)
 1bc:	7fee                	ld	t6,248(sp)
 1be:	6151                	addi	sp,sp,272
 1c0:	30200073          	mret
 1c4:	0000                	unimp

.text 區段的反組譯：

0000000000002000 <barrier>:
    2000:	0ff0000f          	fence
    2004:	00022703          	lw	a4,0(tp) # 0 <_start>
    2008:	a8018693          	addi	a3,gp,-1408 # 8960 <count.1>
    200c:	4605                	li	a2,1
    200e:	00173713          	seqz	a4,a4
    2012:	00e22023          	sw	a4,0(tp) # 0 <_start>
    2016:	0f50000f          	fence	iorw,ow
    201a:	04c6a72f          	amoadd.w.aq	a4,a2,(a3)
    201e:	357d                	addiw	a0,a0,-1
    2020:	2701                	sext.w	a4,a4
    2022:	00e50c63          	beq	a0,a4,203a <barrier+0x3a>
    2026:	00022683          	lw	a3,0(tp) # 0 <_start>
    202a:	a7c18713          	addi	a4,gp,-1412 # 895c <sense.0>
    202e:	431c                	lw	a5,0(a4)
    2030:	fed79fe3          	bne	a5,a3,202e <barrier+0x2e>
    2034:	0ff0000f          	fence
    2038:	8082                	ret
    203a:	00022783          	lw	a5,0(tp) # 0 <_start>
    203e:	a801a023          	sw	zero,-1408(gp) # 8960 <count.1>
    2042:	a6f1ae23          	sw	a5,-1412(gp) # 895c <sense.0>
    2046:	b7fd                	j	2034 <barrier+0x34>

0000000000002048 <verifyDouble.constprop.0>:
    2048:	00007717          	auipc	a4,0x7
    204c:	92070713          	addi	a4,a4,-1760 # 8968 <results_data.2>
    2050:	00001797          	auipc	a5,0x1
    2054:	8d078793          	addi	a5,a5,-1840 # 2920 <verify_data>
    2058:	4681                	li	a3,0
    205a:	3e800513          	li	a0,1000
    205e:	231c                	fld	fa5,0(a4)
    2060:	2790                	fld	fa2,8(a5)
    2062:	2714                	fld	fa3,8(a4)
    2064:	2398                	fld	fa4,0(a5)
    2066:	0741                	addi	a4,a4,16
    2068:	a2d625d3          	feq.d	a1,fa2,fa3
    206c:	a2f72653          	feq.d	a2,fa4,fa5
    2070:	07c1                	addi	a5,a5,16
    2072:	c599                	beqz	a1,2080 <verifyDouble.constprop.0+0x38>
    2074:	c611                	beqz	a2,2080 <verifyDouble.constprop.0+0x38>
    2076:	2689                	addiw	a3,a3,2
    2078:	fea693e3          	bne	a3,a0,205e <verifyDouble.constprop.0+0x16>
    207c:	4501                	li	a0,0
    207e:	8082                	ret
    2080:	2685                	addiw	a3,a3,1
    2082:	00c6853b          	addw	a0,a3,a2
    2086:	8082                	ret

0000000000002088 <thread_entry>:
    2088:	7179                	addi	sp,sp,-48
    208a:	ec26                	sd	s1,24(sp)
    208c:	84aa                	mv	s1,a0
    208e:	852e                	mv	a0,a1
    2090:	f022                	sd	s0,32(sp)
    2092:	f406                	sd	ra,40(sp)
    2094:	e84a                	sd	s2,16(sp)
    2096:	e44e                	sd	s3,8(sp)
    2098:	842e                	mv	s0,a1
    209a:	f67ff0ef          	jal	ra,2000 <barrier>
    209e:	b00029f3          	csrr	s3,mcycle
    20a2:	b0202973          	csrr	s2,minstret
    20a6:	00007797          	auipc	a5,0x7
    20aa:	8c278793          	addi	a5,a5,-1854 # 8968 <results_data.2>
    20ae:	00002717          	auipc	a4,0x2
    20b2:	7b270713          	addi	a4,a4,1970 # 4860 <input2_data>
    20b6:	00004697          	auipc	a3,0x4
    20ba:	6ea68693          	addi	a3,a3,1770 # 67a0 <input1_data>
    20be:	3e800613          	li	a2,1000
    20c2:	85a2                	mv	a1,s0
    20c4:	8526                	mv	a0,s1
    20c6:	10c000ef          	jal	ra,21d2 <vvadd>
    20ca:	8522                	mv	a0,s0
    20cc:	f35ff0ef          	jal	ra,2000 <barrier>
    20d0:	b0002673          	csrr	a2,mcycle
    20d4:	b02027f3          	csrr	a5,minstret
    20d8:	c4d9                	beqz	s1,2166 <thread_entry+0xde>
    20da:	8522                	mv	a0,s0
    20dc:	f25ff0ef          	jal	ra,2000 <barrier>
    20e0:	b00029f3          	csrr	s3,mcycle
    20e4:	b0202973          	csrr	s2,minstret
    20e8:	00007797          	auipc	a5,0x7
    20ec:	88078793          	addi	a5,a5,-1920 # 8968 <results_data.2>
    20f0:	00002717          	auipc	a4,0x2
    20f4:	77070713          	addi	a4,a4,1904 # 4860 <input2_data>
    20f8:	86be                	mv	a3,a5
    20fa:	3e800613          	li	a2,1000
    20fe:	85a2                	mv	a1,s0
    2100:	8526                	mv	a0,s1
    2102:	0d0000ef          	jal	ra,21d2 <vvadd>
    2106:	8522                	mv	a0,s0
    2108:	ef9ff0ef          	jal	ra,2000 <barrier>
    210c:	b0002673          	csrr	a2,mcycle
    2110:	b02027f3          	csrr	a5,minstret
    2114:	e0b9                	bnez	s1,215a <thread_entry+0xd2>
    2116:	41360633          	sub	a2,a2,s3
    211a:	4729                	li	a4,10
    211c:	02e608b3          	mul	a7,a2,a4
    2120:	412787b3          	sub	a5,a5,s2
    2124:	3e800693          	li	a3,1000
    2128:	00006597          	auipc	a1,0x6
    212c:	64858593          	addi	a1,a1,1608 # 8770 <input1_data+0x1fd0>
    2130:	00006517          	auipc	a0,0x6
    2134:	60850513          	addi	a0,a0,1544 # 8738 <input1_data+0x1f98>
    2138:	02f8d833          	divu	a6,a7,a5
    213c:	02d8d8b3          	divu	a7,a7,a3
    2140:	02e87833          	remu	a6,a6,a4
    2144:	02f657b3          	divu	a5,a2,a5
    2148:	02e8f733          	remu	a4,a7,a4
    214c:	02d656b3          	divu	a3,a2,a3
    2150:	524000ef          	jal	ra,2674 <printf>
    2154:	ef5ff0ef          	jal	ra,2048 <verifyDouble.constprop.0>
    2158:	e509                	bnez	a0,2162 <thread_entry+0xda>
    215a:	8522                	mv	a0,s0
    215c:	ea5ff0ef          	jal	ra,2000 <barrier>
    2160:	4501                	li	a0,0
    2162:	45e000ef          	jal	ra,25c0 <exit>
    2166:	41360633          	sub	a2,a2,s3
    216a:	4729                	li	a4,10
    216c:	02e608b3          	mul	a7,a2,a4
    2170:	412787b3          	sub	a5,a5,s2
    2174:	3e800693          	li	a3,1000
    2178:	00006597          	auipc	a1,0x6
    217c:	57058593          	addi	a1,a1,1392 # 86e8 <input1_data+0x1f48>
    2180:	00006517          	auipc	a0,0x6
    2184:	5b850513          	addi	a0,a0,1464 # 8738 <input1_data+0x1f98>
    2188:	02f8d833          	divu	a6,a7,a5
    218c:	02d8d8b3          	divu	a7,a7,a3
    2190:	02e87833          	remu	a6,a6,a4
    2194:	02f657b3          	divu	a5,a2,a5
    2198:	02e8f733          	remu	a4,a7,a4
    219c:	02d656b3          	divu	a3,a2,a3
    21a0:	4d4000ef          	jal	ra,2674 <printf>
    21a4:	ea5ff0ef          	jal	ra,2048 <verifyDouble.constprop.0>
    21a8:	fd4d                	bnez	a0,2162 <thread_entry+0xda>
    21aa:	00004797          	auipc	a5,0x4
    21ae:	5f678793          	addi	a5,a5,1526 # 67a0 <input1_data>
    21b2:	00006717          	auipc	a4,0x6
    21b6:	7b670713          	addi	a4,a4,1974 # 8968 <results_data.2>
    21ba:	00006697          	auipc	a3,0x6
    21be:	52668693          	addi	a3,a3,1318 # 86e0 <input1_data+0x1f40>
    21c2:	239c                	fld	fa5,0(a5)
    21c4:	07a1                	addi	a5,a5,8
    21c6:	0721                	addi	a4,a4,8
    21c8:	fef73c27          	fsd	fa5,-8(a4)
    21cc:	fed79be3          	bne	a5,a3,21c2 <thread_entry+0x13a>
    21d0:	b729                	j	20da <thread_entry+0x52>

00000000000021d2 <vvadd>:
    21d2:	00359e13          	slli	t3,a1,0x3
    21d6:	00351813          	slli	a6,a0,0x3
    21da:	02c57463          	bgeu	a0,a2,2202 <vvadd+0x30>
    21de:	010708b3          	add	a7,a4,a6
    21e2:	01068333          	add	t1,a3,a6
    21e6:	0008b707          	fld	fa4,0(a7)
    21ea:	00033787          	fld	fa5,0(t1)
    21ee:	010788b3          	add	a7,a5,a6
    21f2:	952e                	add	a0,a0,a1
    21f4:	02e7f7d3          	fadd.d	fa5,fa5,fa4
    21f8:	9872                	add	a6,a6,t3
    21fa:	00f8b027          	fsd	fa5,0(a7)
    21fe:	fec560e3          	bltu	a0,a2,21de <vvadd+0xc>
    2202:	8082                	ret

0000000000002204 <vprintfmt>:
    2204:	7149                	addi	sp,sp,-368
    2206:	f2a2                	sd	s0,352(sp)
    2208:	eea6                	sd	s1,344(sp)
    220a:	eaca                	sd	s2,336(sp)
    220c:	e2d2                	sd	s4,320(sp)
    220e:	fe56                	sd	s5,312(sp)
    2210:	fa5a                	sd	s6,304(sp)
    2212:	f65e                	sd	s7,296(sp)
    2214:	f686                	sd	ra,360(sp)
    2216:	e6ce                	sd	s3,328(sp)
    2218:	f262                	sd	s8,288(sp)
    221a:	ee66                	sd	s9,280(sp)
    221c:	ea6a                	sd	s10,272(sp)
    221e:	e66e                	sd	s11,264(sp)
    2220:	892a                	mv	s2,a0
    2222:	84ae                	mv	s1,a1
    2224:	8432                	mv	s0,a2
    2226:	8ab6                	mv	s5,a3
    2228:	02500a13          	li	s4,37
    222c:	05500b93          	li	s7,85
    2230:	92418b13          	addi	s6,gp,-1756 # 8804 <input1_data+0x2064>
    2234:	a029                	j	223e <vprintfmt+0x3a>
    2236:	cd1d                	beqz	a0,2274 <vprintfmt+0x70>
    2238:	85a6                	mv	a1,s1
    223a:	0405                	addi	s0,s0,1
    223c:	9902                	jalr	s2
    223e:	00044503          	lbu	a0,0(s0)
    2242:	ff451ae3          	bne	a0,s4,2236 <vprintfmt+0x32>
    2246:	00144683          	lbu	a3,1(s0)
    224a:	00140993          	addi	s3,s0,1
    224e:	874e                	mv	a4,s3
    2250:	02000c93          	li	s9,32
    2254:	5c7d                	li	s8,-1
    2256:	5dfd                	li	s11,-1
    2258:	4601                	li	a2,0
    225a:	fdd6879b          	addiw	a5,a3,-35
    225e:	0ff7f793          	zext.b	a5,a5
    2262:	00170413          	addi	s0,a4,1
    2266:	04fbe263          	bltu	s7,a5,22aa <vprintfmt+0xa6>
    226a:	078a                	slli	a5,a5,0x2
    226c:	97da                	add	a5,a5,s6
    226e:	439c                	lw	a5,0(a5)
    2270:	97da                	add	a5,a5,s6
    2272:	8782                	jr	a5
    2274:	70b6                	ld	ra,360(sp)
    2276:	7416                	ld	s0,352(sp)
    2278:	64f6                	ld	s1,344(sp)
    227a:	6956                	ld	s2,336(sp)
    227c:	69b6                	ld	s3,328(sp)
    227e:	6a16                	ld	s4,320(sp)
    2280:	7af2                	ld	s5,312(sp)
    2282:	7b52                	ld	s6,304(sp)
    2284:	7bb2                	ld	s7,296(sp)
    2286:	7c12                	ld	s8,288(sp)
    2288:	6cf2                	ld	s9,280(sp)
    228a:	6d52                	ld	s10,272(sp)
    228c:	6db2                	ld	s11,264(sp)
    228e:	6175                	addi	sp,sp,368
    2290:	8082                	ret
    2292:	8cb6                	mv	s9,a3
    2294:	00174683          	lbu	a3,1(a4)
    2298:	8722                	mv	a4,s0
    229a:	00170413          	addi	s0,a4,1
    229e:	fdd6879b          	addiw	a5,a3,-35
    22a2:	0ff7f793          	zext.b	a5,a5
    22a6:	fcfbf2e3          	bgeu	s7,a5,226a <vprintfmt+0x66>
    22aa:	85a6                	mv	a1,s1
    22ac:	02500513          	li	a0,37
    22b0:	9902                	jalr	s2
    22b2:	844e                	mv	s0,s3
    22b4:	b769                	j	223e <vprintfmt+0x3a>
    22b6:	fd068c1b          	addiw	s8,a3,-48
    22ba:	00174683          	lbu	a3,1(a4)
    22be:	47a5                	li	a5,9
    22c0:	fd06871b          	addiw	a4,a3,-48
    22c4:	0006859b          	sext.w	a1,a3
    22c8:	20e7e863          	bltu	a5,a4,24d8 <vprintfmt+0x2d4>
    22cc:	8722                	mv	a4,s0
    22ce:	4825                	li	a6,9
    22d0:	00174683          	lbu	a3,1(a4)
    22d4:	002c179b          	slliw	a5,s8,0x2
    22d8:	018787bb          	addw	a5,a5,s8
    22dc:	0017979b          	slliw	a5,a5,0x1
    22e0:	9fad                	addw	a5,a5,a1
    22e2:	fd06851b          	addiw	a0,a3,-48
    22e6:	0705                	addi	a4,a4,1
    22e8:	fd078c1b          	addiw	s8,a5,-48
    22ec:	0006859b          	sext.w	a1,a3
    22f0:	fea870e3          	bgeu	a6,a0,22d0 <vprintfmt+0xcc>
    22f4:	f60dd3e3          	bgez	s11,225a <vprintfmt+0x56>
    22f8:	8de2                	mv	s11,s8
    22fa:	5c7d                	li	s8,-1
    22fc:	bfb9                	j	225a <vprintfmt+0x56>
    22fe:	00174683          	lbu	a3,1(a4)
    2302:	8722                	mv	a4,s0
    2304:	bf99                	j	225a <vprintfmt+0x56>
    2306:	85a6                	mv	a1,s1
    2308:	02500513          	li	a0,37
    230c:	9902                	jalr	s2
    230e:	bf05                	j	223e <vprintfmt+0x3a>
    2310:	000aac03          	lw	s8,0(s5)
    2314:	00174683          	lbu	a3,1(a4)
    2318:	0aa1                	addi	s5,s5,8
    231a:	8722                	mv	a4,s0
    231c:	bfe1                	j	22f4 <vprintfmt+0xf0>
    231e:	03000513          	li	a0,48
    2322:	85a6                	mv	a1,s1
    2324:	9902                	jalr	s2
    2326:	85a6                	mv	a1,s1
    2328:	07800513          	li	a0,120
    232c:	9902                	jalr	s2
    232e:	46c1                	li	a3,16
    2330:	008a8713          	addi	a4,s5,8
    2334:	000ab783          	ld	a5,0(s5)
    2338:	8aba                	mv	s5,a4
    233a:	02d7f5b3          	remu	a1,a5,a3
    233e:	000c899b          	sext.w	s3,s9
    2342:	0050                	addi	a2,sp,4
    2344:	4705                	li	a4,1
    2346:	c02e                	sw	a1,0(sp)
    2348:	16d7e663          	bltu	a5,a3,24b4 <vprintfmt+0x2b0>
    234c:	02d7d7b3          	divu	a5,a5,a3
    2350:	0611                	addi	a2,a2,4
    2352:	8c3a                	mv	s8,a4
    2354:	2705                	addiw	a4,a4,1
    2356:	02d7f5b3          	remu	a1,a5,a3
    235a:	feb62e23          	sw	a1,-4(a2)
    235e:	fed7f7e3          	bgeu	a5,a3,234c <vprintfmt+0x148>
    2362:	fffd8c9b          	addiw	s9,s11,-1
    2366:	fff70d1b          	addiw	s10,a4,-1
    236a:	01b75863          	bge	a4,s11,237a <vprintfmt+0x176>
    236e:	3cfd                	addiw	s9,s9,-1
    2370:	85a6                	mv	a1,s1
    2372:	854e                	mv	a0,s3
    2374:	9902                	jalr	s2
    2376:	ffac9ce3          	bne	s9,s10,236e <vprintfmt+0x16a>
    237a:	0c0a                	slli	s8,s8,0x2
    237c:	018109b3          	add	s3,sp,s8
    2380:	ffc10c93          	addi	s9,sp,-4
    2384:	4c25                	li	s8,9
    2386:	0009a783          	lw	a5,0(s3)
    238a:	05700513          	li	a0,87
    238e:	00fc6463          	bltu	s8,a5,2396 <vprintfmt+0x192>
    2392:	03000513          	li	a0,48
    2396:	19f1                	addi	s3,s3,-4
    2398:	85a6                	mv	a1,s1
    239a:	9d3d                	addw	a0,a0,a5
    239c:	9902                	jalr	s2
    239e:	ff3c94e3          	bne	s9,s3,2386 <vprintfmt+0x182>
    23a2:	bd71                	j	223e <vprintfmt+0x3a>
    23a4:	4785                	li	a5,1
    23a6:	008a8c13          	addi	s8,s5,8
    23aa:	00c7c463          	blt	a5,a2,23b2 <vprintfmt+0x1ae>
    23ae:	10060563          	beqz	a2,24b8 <vprintfmt+0x2b4>
    23b2:	000ab983          	ld	s3,0(s5)
    23b6:	1009c863          	bltz	s3,24c6 <vprintfmt+0x2c2>
    23ba:	87ce                	mv	a5,s3
    23bc:	8ae2                	mv	s5,s8
    23be:	46a9                	li	a3,10
    23c0:	bfad                	j	233a <vprintfmt+0x136>
    23c2:	00174683          	lbu	a3,1(a4)
    23c6:	2605                	addiw	a2,a2,1
    23c8:	8722                	mv	a4,s0
    23ca:	bd41                	j	225a <vprintfmt+0x56>
    23cc:	46c1                	li	a3,16
    23ce:	4785                	li	a5,1
    23d0:	008a8713          	addi	a4,s5,8
    23d4:	f6c7c0e3          	blt	a5,a2,2334 <vprintfmt+0x130>
    23d8:	fe31                	bnez	a2,2334 <vprintfmt+0x130>
    23da:	000ae783          	lwu	a5,0(s5)
    23de:	8aba                	mv	s5,a4
    23e0:	bfa9                	j	233a <vprintfmt+0x136>
    23e2:	000abd03          	ld	s10,0(s5)
    23e6:	0aa1                	addi	s5,s5,8
    23e8:	040d0263          	beqz	s10,242c <vprintfmt+0x228>
    23ec:	09b05d63          	blez	s11,2486 <vprintfmt+0x282>
    23f0:	02d00793          	li	a5,45
    23f4:	04fc9e63          	bne	s9,a5,2450 <vprintfmt+0x24c>
    23f8:	000d4503          	lbu	a0,0(s10)
    23fc:	c105                	beqz	a0,241c <vprintfmt+0x218>
    23fe:	59fd                	li	s3,-1
    2400:	000c4563          	bltz	s8,240a <vprintfmt+0x206>
    2404:	3c7d                	addiw	s8,s8,-1
    2406:	013c0963          	beq	s8,s3,2418 <vprintfmt+0x214>
    240a:	85a6                	mv	a1,s1
    240c:	0d05                	addi	s10,s10,1
    240e:	9902                	jalr	s2
    2410:	000d4503          	lbu	a0,0(s10)
    2414:	3dfd                	addiw	s11,s11,-1
    2416:	f56d                	bnez	a0,2400 <vprintfmt+0x1fc>
    2418:	e3b053e3          	blez	s11,223e <vprintfmt+0x3a>
    241c:	3dfd                	addiw	s11,s11,-1
    241e:	85a6                	mv	a1,s1
    2420:	02000513          	li	a0,32
    2424:	9902                	jalr	s2
    2426:	fe0d9be3          	bnez	s11,241c <vprintfmt+0x218>
    242a:	bd11                	j	223e <vprintfmt+0x3a>
    242c:	00006d17          	auipc	s10,0x6
    2430:	394d0d13          	addi	s10,s10,916 # 87c0 <input1_data+0x2020>
    2434:	02800513          	li	a0,40
    2438:	fdb053e3          	blez	s11,23fe <vprintfmt+0x1fa>
    243c:	02d00793          	li	a5,45
    2440:	00006d17          	auipc	s10,0x6
    2444:	380d0d13          	addi	s10,s10,896 # 87c0 <input1_data+0x2020>
    2448:	02800513          	li	a0,40
    244c:	fafc89e3          	beq	s9,a5,23fe <vprintfmt+0x1fa>
    2450:	000d861b          	sext.w	a2,s11
    2454:	87ea                	mv	a5,s10
    2456:	018d06b3          	add	a3,s10,s8
    245a:	000c1663          	bnez	s8,2466 <vprintfmt+0x262>
    245e:	a829                	j	2478 <vprintfmt+0x274>
    2460:	0785                	addi	a5,a5,1
    2462:	00d78563          	beq	a5,a3,246c <vprintfmt+0x268>
    2466:	0007c703          	lbu	a4,0(a5)
    246a:	fb7d                	bnez	a4,2460 <vprintfmt+0x25c>
    246c:	41a787b3          	sub	a5,a5,s10
    2470:	40f60dbb          	subw	s11,a2,a5
    2474:	01b05963          	blez	s11,2486 <vprintfmt+0x282>
    2478:	2c81                	sext.w	s9,s9
    247a:	3dfd                	addiw	s11,s11,-1
    247c:	85a6                	mv	a1,s1
    247e:	8566                	mv	a0,s9
    2480:	9902                	jalr	s2
    2482:	fe0d9ce3          	bnez	s11,247a <vprintfmt+0x276>
    2486:	000d4503          	lbu	a0,0(s10)
    248a:	da050ae3          	beqz	a0,223e <vprintfmt+0x3a>
    248e:	59fd                	li	s3,-1
    2490:	bf85                	j	2400 <vprintfmt+0x1fc>
    2492:	fffdc793          	not	a5,s11
    2496:	97fd                	srai	a5,a5,0x3f
    2498:	00fdf7b3          	and	a5,s11,a5
    249c:	00174683          	lbu	a3,1(a4)
    24a0:	00078d9b          	sext.w	s11,a5
    24a4:	8722                	mv	a4,s0
    24a6:	bb55                	j	225a <vprintfmt+0x56>
    24a8:	000aa503          	lw	a0,0(s5)
    24ac:	85a6                	mv	a1,s1
    24ae:	0aa1                	addi	s5,s5,8
    24b0:	9902                	jalr	s2
    24b2:	b371                	j	223e <vprintfmt+0x3a>
    24b4:	4c01                	li	s8,0
    24b6:	b575                	j	2362 <vprintfmt+0x15e>
    24b8:	000aa983          	lw	s3,0(s5)
    24bc:	bded                	j	23b6 <vprintfmt+0x1b2>
    24be:	46a9                	li	a3,10
    24c0:	b739                	j	23ce <vprintfmt+0x1ca>
    24c2:	46a1                	li	a3,8
    24c4:	b729                	j	23ce <vprintfmt+0x1ca>
    24c6:	85a6                	mv	a1,s1
    24c8:	02d00513          	li	a0,45
    24cc:	9902                	jalr	s2
    24ce:	8ae2                	mv	s5,s8
    24d0:	413007b3          	neg	a5,s3
    24d4:	46a9                	li	a3,10
    24d6:	b595                	j	233a <vprintfmt+0x136>
    24d8:	8722                	mv	a4,s0
    24da:	bd29                	j	22f4 <vprintfmt+0xf0>

00000000000024dc <sprintf_putch.0>:
    24dc:	619c                	ld	a5,0(a1)
    24de:	00a78023          	sb	a0,0(a5)
    24e2:	619c                	ld	a5,0(a1)
    24e4:	0785                	addi	a5,a5,1
    24e6:	e19c                	sd	a5,0(a1)
    24e8:	8082                	ret

00000000000024ea <putchar>:
    24ea:	08022803          	lw	a6,128(tp) # 80 <buflen.1>
    24ee:	04020793          	addi	a5,tp,64 # 40 <buf.2>
    24f2:	97c2                	add	a5,a5,a6
    24f4:	7159                	addi	sp,sp,-112
    24f6:	0018069b          	addiw	a3,a6,1
    24fa:	08d22023          	sw	a3,128(tp) # 80 <buflen.1>
    24fe:	00a78023          	sb	a0,0(a5)
    2502:	03f10713          	addi	a4,sp,63
    2506:	47a9                	li	a5,10
    2508:	fc077713          	andi	a4,a4,-64
    250c:	00f50963          	beq	a0,a5,251e <putchar+0x34>
    2510:	04000793          	li	a5,64
    2514:	00f68563          	beq	a3,a5,251e <putchar+0x34>
    2518:	4501                	li	a0,0
    251a:	6165                	addi	sp,sp,112
    251c:	8082                	ret
    251e:	04000793          	li	a5,64
    2522:	e31c                	sd	a5,0(a4)
    2524:	4785                	li	a5,1
    2526:	e71c                	sd	a5,8(a4)
    2528:	04020613          	addi	a2,tp,64 # 40 <buf.2>
    252c:	eb10                	sd	a2,16(a4)
    252e:	ef14                	sd	a3,24(a4)
    2530:	0ff0000f          	fence
    2534:	fffff697          	auipc	a3,0xfffff
    2538:	b0c68693          	addi	a3,a3,-1268 # 1040 <fromhost>
    253c:	fffff797          	auipc	a5,0xfffff
    2540:	ace7b223          	sd	a4,-1340(a5) # 1000 <tohost>
    2544:	629c                	ld	a5,0(a3)
    2546:	dffd                	beqz	a5,2544 <putchar+0x5a>
    2548:	fffff797          	auipc	a5,0xfffff
    254c:	ae07bc23          	sd	zero,-1288(a5) # 1040 <fromhost>
    2550:	0ff0000f          	fence
    2554:	08022023          	sw	zero,128(tp) # 80 <buflen.1>
    2558:	631c                	ld	a5,0(a4)
    255a:	4501                	li	a0,0
    255c:	6165                	addi	sp,sp,112
    255e:	8082                	ret

0000000000002560 <setStats>:
    2560:	b0002773          	csrr	a4,mcycle
    2564:	00008797          	auipc	a5,0x8
    2568:	34478793          	addi	a5,a5,836 # a8a8 <counters>
    256c:	c511                	beqz	a0,2578 <setStats+0x18>
    256e:	e398                	sd	a4,0(a5)
    2570:	b0202773          	csrr	a4,minstret
    2574:	e798                	sd	a4,8(a5)
    2576:	8082                	ret
    2578:	6394                	ld	a3,0(a5)
    257a:	00006617          	auipc	a2,0x6
    257e:	24e60613          	addi	a2,a2,590 # 87c8 <input1_data+0x2028>
    2582:	eb90                	sd	a2,16(a5)
    2584:	8f15                	sub	a4,a4,a3
    2586:	e398                	sd	a4,0(a5)
    2588:	b0202773          	csrr	a4,minstret
    258c:	6794                	ld	a3,8(a5)
    258e:	00006617          	auipc	a2,0x6
    2592:	24260613          	addi	a2,a2,578 # 87d0 <input1_data+0x2030>
    2596:	ef90                	sd	a2,24(a5)
    2598:	8f15                	sub	a4,a4,a3
    259a:	e798                	sd	a4,8(a5)
    259c:	8082                	ret

000000000000259e <tohost_exit>:
    259e:	00151793          	slli	a5,a0,0x1
    25a2:	0017e793          	ori	a5,a5,1
    25a6:	fffff717          	auipc	a4,0xfffff
    25aa:	a4f73d23          	sd	a5,-1446(a4) # 1000 <tohost>
    25ae:	a001                	j	25ae <tohost_exit+0x10>

00000000000025b0 <handle_trap>:
    25b0:	6785                	lui	a5,0x1
    25b2:	a7378793          	addi	a5,a5,-1421 # a73 <trap_entry+0x94f>
    25b6:	fffff717          	auipc	a4,0xfffff
    25ba:	a4f73523          	sd	a5,-1462(a4) # 1000 <tohost>
    25be:	a001                	j	25be <handle_trap+0xe>

00000000000025c0 <exit>:
    25c0:	1141                	addi	sp,sp,-16
    25c2:	e406                	sd	ra,8(sp)
    25c4:	fdbff0ef          	jal	ra,259e <tohost_exit>

00000000000025c8 <abort>:
    25c8:	10d00793          	li	a5,269
    25cc:	fffff717          	auipc	a4,0xfffff
    25d0:	a2f73a23          	sd	a5,-1484(a4) # 1000 <tohost>
    25d4:	a001                	j	25d4 <abort+0xc>

00000000000025d6 <printstr>:
    25d6:	00054783          	lbu	a5,0(a0)
    25da:	7159                	addi	sp,sp,-112
    25dc:	03f10693          	addi	a3,sp,63
    25e0:	fc06f693          	andi	a3,a3,-64
    25e4:	c3b9                	beqz	a5,262a <printstr+0x54>
    25e6:	87aa                	mv	a5,a0
    25e8:	0017c703          	lbu	a4,1(a5)
    25ec:	0785                	addi	a5,a5,1
    25ee:	ff6d                	bnez	a4,25e8 <printstr+0x12>
    25f0:	8f89                	sub	a5,a5,a0
    25f2:	04000713          	li	a4,64
    25f6:	e298                	sd	a4,0(a3)
    25f8:	4705                	li	a4,1
    25fa:	e698                	sd	a4,8(a3)
    25fc:	ea88                	sd	a0,16(a3)
    25fe:	ee9c                	sd	a5,24(a3)
    2600:	0ff0000f          	fence
    2604:	fffff717          	auipc	a4,0xfffff
    2608:	a3c70713          	addi	a4,a4,-1476 # 1040 <fromhost>
    260c:	fffff797          	auipc	a5,0xfffff
    2610:	9ed7ba23          	sd	a3,-1548(a5) # 1000 <tohost>
    2614:	631c                	ld	a5,0(a4)
    2616:	dffd                	beqz	a5,2614 <printstr+0x3e>
    2618:	fffff797          	auipc	a5,0xfffff
    261c:	a207b423          	sd	zero,-1496(a5) # 1040 <fromhost>
    2620:	0ff0000f          	fence
    2624:	629c                	ld	a5,0(a3)
    2626:	6165                	addi	sp,sp,112
    2628:	8082                	ret
    262a:	4781                	li	a5,0
    262c:	b7d9                	j	25f2 <printstr+0x1c>
    262e:	e101                	bnez	a0,262e <printstr+0x58>
    2630:	8082                	ret

0000000000002632 <printhex>:
    2632:	7179                	addi	sp,sp,-48
    2634:	87aa                	mv	a5,a0
    2636:	f406                	sd	ra,40(sp)
    2638:	0028                	addi	a0,sp,8
    263a:	01710713          	addi	a4,sp,23
    263e:	4825                	li	a6,9
    2640:	a011                	j	2644 <printhex+0x12>
    2642:	8736                	mv	a4,a3
    2644:	00f7f613          	andi	a2,a5,15
    2648:	86b2                	mv	a3,a2
    264a:	05700593          	li	a1,87
    264e:	00c86463          	bltu	a6,a2,2656 <printhex+0x24>
    2652:	03000593          	li	a1,48
    2656:	9ead                	addw	a3,a3,a1
    2658:	00d70023          	sb	a3,0(a4)
    265c:	8391                	srli	a5,a5,0x4
    265e:	fff70693          	addi	a3,a4,-1
    2662:	fee510e3          	bne	a0,a4,2642 <printhex+0x10>
    2666:	00010c23          	sb	zero,24(sp)
    266a:	f6dff0ef          	jal	ra,25d6 <printstr>
    266e:	70a2                	ld	ra,40(sp)
    2670:	6145                	addi	sp,sp,48
    2672:	8082                	ret

0000000000002674 <printf>:
    2674:	711d                	addi	sp,sp,-96
    2676:	02810313          	addi	t1,sp,40
    267a:	8e2a                	mv	t3,a0
    267c:	f42e                	sd	a1,40(sp)
    267e:	f832                	sd	a2,48(sp)
    2680:	fc36                	sd	a3,56(sp)
    2682:	00000517          	auipc	a0,0x0
    2686:	e6850513          	addi	a0,a0,-408 # 24ea <putchar>
    268a:	869a                	mv	a3,t1
    268c:	8672                	mv	a2,t3
    268e:	4581                	li	a1,0
    2690:	ec06                	sd	ra,24(sp)
    2692:	e0ba                	sd	a4,64(sp)
    2694:	e4be                	sd	a5,72(sp)
    2696:	e8c2                	sd	a6,80(sp)
    2698:	ecc6                	sd	a7,88(sp)
    269a:	e41a                	sd	t1,8(sp)
    269c:	b69ff0ef          	jal	ra,2204 <vprintfmt>
    26a0:	60e2                	ld	ra,24(sp)
    26a2:	4501                	li	a0,0
    26a4:	6125                	addi	sp,sp,96
    26a6:	8082                	ret

00000000000026a8 <sprintf>:
    26a8:	711d                	addi	sp,sp,-96
    26aa:	03010313          	addi	t1,sp,48
    26ae:	f022                	sd	s0,32(sp)
    26b0:	e42a                	sd	a0,8(sp)
    26b2:	f832                	sd	a2,48(sp)
    26b4:	fc36                	sd	a3,56(sp)
    26b6:	842a                	mv	s0,a0
    26b8:	862e                	mv	a2,a1
    26ba:	00000517          	auipc	a0,0x0
    26be:	e2250513          	addi	a0,a0,-478 # 24dc <sprintf_putch.0>
    26c2:	002c                	addi	a1,sp,8
    26c4:	869a                	mv	a3,t1
    26c6:	f406                	sd	ra,40(sp)
    26c8:	e4be                	sd	a5,72(sp)
    26ca:	e0ba                	sd	a4,64(sp)
    26cc:	e8c2                	sd	a6,80(sp)
    26ce:	ecc6                	sd	a7,88(sp)
    26d0:	ec1a                	sd	t1,24(sp)
    26d2:	b33ff0ef          	jal	ra,2204 <vprintfmt>
    26d6:	67a2                	ld	a5,8(sp)
    26d8:	00078023          	sb	zero,0(a5)
    26dc:	6522                	ld	a0,8(sp)
    26de:	70a2                	ld	ra,40(sp)
    26e0:	9d01                	subw	a0,a0,s0
    26e2:	7402                	ld	s0,32(sp)
    26e4:	6125                	addi	sp,sp,96
    26e6:	8082                	ret

00000000000026e8 <memcpy>:
    26e8:	00b567b3          	or	a5,a0,a1
    26ec:	8fd1                	or	a5,a5,a2
    26ee:	8b9d                	andi	a5,a5,7
    26f0:	00c506b3          	add	a3,a0,a2
    26f4:	cf91                	beqz	a5,2710 <memcpy+0x28>
    26f6:	962e                	add	a2,a2,a1
    26f8:	87aa                	mv	a5,a0
    26fa:	02d57663          	bgeu	a0,a3,2726 <memcpy+0x3e>
    26fe:	0005c703          	lbu	a4,0(a1)
    2702:	0585                	addi	a1,a1,1
    2704:	0785                	addi	a5,a5,1
    2706:	fee78fa3          	sb	a4,-1(a5)
    270a:	feb61ae3          	bne	a2,a1,26fe <memcpy+0x16>
    270e:	8082                	ret
    2710:	fed57fe3          	bgeu	a0,a3,270e <memcpy+0x26>
    2714:	87aa                	mv	a5,a0
    2716:	6198                	ld	a4,0(a1)
    2718:	07a1                	addi	a5,a5,8
    271a:	05a1                	addi	a1,a1,8
    271c:	fee7bc23          	sd	a4,-8(a5)
    2720:	fed7ebe3          	bltu	a5,a3,2716 <memcpy+0x2e>
    2724:	8082                	ret
    2726:	8082                	ret

0000000000002728 <memset>:
    2728:	00c567b3          	or	a5,a0,a2
    272c:	8b9d                	andi	a5,a5,7
    272e:	962a                	add	a2,a2,a0
    2730:	0ff5f713          	zext.b	a4,a1
    2734:	cb91                	beqz	a5,2748 <memset+0x20>
    2736:	87aa                	mv	a5,a0
    2738:	02c57763          	bgeu	a0,a2,2766 <memset+0x3e>
    273c:	0785                	addi	a5,a5,1
    273e:	fee78fa3          	sb	a4,-1(a5)
    2742:	fec79de3          	bne	a5,a2,273c <memset+0x14>
    2746:	8082                	ret
    2748:	00006797          	auipc	a5,0x6
    274c:	f987b783          	ld	a5,-104(a5) # 86e0 <input1_data+0x1f40>
    2750:	02f70733          	mul	a4,a4,a5
    2754:	fec579e3          	bgeu	a0,a2,2746 <memset+0x1e>
    2758:	87aa                	mv	a5,a0
    275a:	07a1                	addi	a5,a5,8
    275c:	fee7bc23          	sd	a4,-8(a5)
    2760:	fec7ede3          	bltu	a5,a2,275a <memset+0x32>
    2764:	8082                	ret
    2766:	8082                	ret

0000000000002768 <_init>:
    2768:	7171                	addi	sp,sp,-176
    276a:	00008797          	auipc	a5,0x8
    276e:	15e78793          	addi	a5,a5,350 # a8c8 <_tdata_begin>
    2772:	e152                	sd	s4,128(sp)
    2774:	00008a17          	auipc	s4,0x8
    2778:	154a0a13          	addi	s4,s4,340 # a8c8 <_tdata_begin>
    277c:	e54e                	sd	s3,136(sp)
    277e:	40fa09b3          	sub	s3,s4,a5
    2782:	ed26                	sd	s1,152(sp)
    2784:	e94a                	sd	s2,144(sp)
    2786:	84aa                	mv	s1,a0
    2788:	892e                	mv	s2,a1
    278a:	8512                	mv	a0,tp
    278c:	85be                	mv	a1,a5
    278e:	864e                	mv	a2,s3
    2790:	f506                	sd	ra,168(sp)
    2792:	f122                	sd	s0,160(sp)
    2794:	fcd6                	sd	s5,120(sp)
    2796:	8a92                	mv	s5,tp
    2798:	f51ff0ef          	jal	ra,26e8 <memcpy>
    279c:	00008617          	auipc	a2,0x8
    27a0:	1e860613          	addi	a2,a2,488 # a984 <_tbss_end>
    27a4:	41460633          	sub	a2,a2,s4
    27a8:	4581                	li	a1,0
    27aa:	013a8533          	add	a0,s5,s3
    27ae:	f7bff0ef          	jal	ra,2728 <memset>
    27b2:	85ca                	mv	a1,s2
    27b4:	8526                	mv	a0,s1
    27b6:	8d3ff0ef          	jal	ra,2088 <thread_entry>
    27ba:	4581                	li	a1,0
    27bc:	4501                	li	a0,0
    27be:	146000ef          	jal	ra,2904 <main>
    27c2:	00008917          	auipc	s2,0x8
    27c6:	0e690913          	addi	s2,s2,230 # a8a8 <counters>
    27ca:	00093683          	ld	a3,0(s2)
    27ce:	03f10413          	addi	s0,sp,63
    27d2:	fc047413          	andi	s0,s0,-64
    27d6:	84aa                	mv	s1,a0
    27d8:	ea85                	bnez	a3,2808 <_init+0xa0>
    27da:	00893683          	ld	a3,8(s2)
    27de:	e681                	bnez	a3,27e6 <_init+0x7e>
    27e0:	8526                	mv	a0,s1
    27e2:	dbdff0ef          	jal	ra,259e <tohost_exit>
    27e6:	89a2                	mv	s3,s0
    27e8:	01893603          	ld	a2,24(s2)
    27ec:	854e                	mv	a0,s3
    27ee:	00006597          	auipc	a1,0x6
    27f2:	00a58593          	addi	a1,a1,10 # 87f8 <input1_data+0x2058>
    27f6:	eb3ff0ef          	jal	ra,26a8 <sprintf>
    27fa:	99aa                	add	s3,s3,a0
    27fc:	ff3402e3          	beq	s0,s3,27e0 <_init+0x78>
    2800:	8522                	mv	a0,s0
    2802:	dd5ff0ef          	jal	ra,25d6 <printstr>
    2806:	bfe9                	j	27e0 <_init+0x78>
    2808:	01093603          	ld	a2,16(s2)
    280c:	00006597          	auipc	a1,0x6
    2810:	fec58593          	addi	a1,a1,-20 # 87f8 <input1_data+0x2058>
    2814:	8522                	mv	a0,s0
    2816:	e93ff0ef          	jal	ra,26a8 <sprintf>
    281a:	00893683          	ld	a3,8(s2)
    281e:	00a409b3          	add	s3,s0,a0
    2822:	dee9                	beqz	a3,27fc <_init+0x94>
    2824:	b7d1                	j	27e8 <_init+0x80>

0000000000002826 <strlen>:
    2826:	00054783          	lbu	a5,0(a0)
    282a:	cb89                	beqz	a5,283c <strlen+0x16>
    282c:	87aa                	mv	a5,a0
    282e:	0017c703          	lbu	a4,1(a5)
    2832:	0785                	addi	a5,a5,1
    2834:	ff6d                	bnez	a4,282e <strlen+0x8>
    2836:	40a78533          	sub	a0,a5,a0
    283a:	8082                	ret
    283c:	4501                	li	a0,0
    283e:	8082                	ret

0000000000002840 <strnlen>:
    2840:	00b506b3          	add	a3,a0,a1
    2844:	87aa                	mv	a5,a0
    2846:	e589                	bnez	a1,2850 <strnlen+0x10>
    2848:	a829                	j	2862 <strnlen+0x22>
    284a:	0785                	addi	a5,a5,1
    284c:	00f68863          	beq	a3,a5,285c <strnlen+0x1c>
    2850:	0007c703          	lbu	a4,0(a5)
    2854:	fb7d                	bnez	a4,284a <strnlen+0xa>
    2856:	40a78533          	sub	a0,a5,a0
    285a:	8082                	ret
    285c:	40a68533          	sub	a0,a3,a0
    2860:	8082                	ret
    2862:	4501                	li	a0,0
    2864:	8082                	ret

0000000000002866 <strcmp>:
    2866:	00054783          	lbu	a5,0(a0)
    286a:	0585                	addi	a1,a1,1
    286c:	0505                	addi	a0,a0,1
    286e:	fff5c703          	lbu	a4,-1(a1)
    2872:	c799                	beqz	a5,2880 <strcmp+0x1a>
    2874:	fee789e3          	beq	a5,a4,2866 <strcmp>
    2878:	0007851b          	sext.w	a0,a5
    287c:	9d19                	subw	a0,a0,a4
    287e:	8082                	ret
    2880:	4501                	li	a0,0
    2882:	bfed                	j	287c <strcmp+0x16>

0000000000002884 <strcpy>:
    2884:	87aa                	mv	a5,a0
    2886:	0005c703          	lbu	a4,0(a1)
    288a:	0785                	addi	a5,a5,1
    288c:	0585                	addi	a1,a1,1
    288e:	fee78fa3          	sb	a4,-1(a5)
    2892:	fb75                	bnez	a4,2886 <strcpy+0x2>
    2894:	8082                	ret

0000000000002896 <atol>:
    2896:	00054703          	lbu	a4,0(a0)
    289a:	02000693          	li	a3,32
    289e:	87aa                	mv	a5,a0
    28a0:	00d71763          	bne	a4,a3,28ae <atol+0x18>
    28a4:	0017c703          	lbu	a4,1(a5)
    28a8:	0785                	addi	a5,a5,1
    28aa:	fed70de3          	beq	a4,a3,28a4 <atol+0xe>
    28ae:	02d00693          	li	a3,45
    28b2:	04d70263          	beq	a4,a3,28f6 <atol+0x60>
    28b6:	02b00693          	li	a3,43
    28ba:	02d70763          	beq	a4,a3,28e8 <atol+0x52>
    28be:	0007c683          	lbu	a3,0(a5)
    28c2:	4581                	li	a1,0
    28c4:	c69d                	beqz	a3,28f2 <atol+0x5c>
    28c6:	4501                	li	a0,0
    28c8:	0785                	addi	a5,a5,1
    28ca:	00251713          	slli	a4,a0,0x2
    28ce:	fd06861b          	addiw	a2,a3,-48
    28d2:	0007c683          	lbu	a3,0(a5)
    28d6:	972a                	add	a4,a4,a0
    28d8:	0706                	slli	a4,a4,0x1
    28da:	00e60533          	add	a0,a2,a4
    28de:	f6ed                	bnez	a3,28c8 <atol+0x32>
    28e0:	c991                	beqz	a1,28f4 <atol+0x5e>
    28e2:	40a00533          	neg	a0,a0
    28e6:	8082                	ret
    28e8:	0017c683          	lbu	a3,1(a5)
    28ec:	4581                	li	a1,0
    28ee:	0785                	addi	a5,a5,1
    28f0:	faf9                	bnez	a3,28c6 <atol+0x30>
    28f2:	4501                	li	a0,0
    28f4:	8082                	ret
    28f6:	0017c683          	lbu	a3,1(a5)
    28fa:	4585                	li	a1,1
    28fc:	0785                	addi	a5,a5,1
    28fe:	f6e1                	bnez	a3,28c6 <atol+0x30>
    2900:	4501                	li	a0,0
    2902:	bfcd                	j	28f4 <atol+0x5e>

.text.startup 區段的反組譯：

0000000000002904 <main>:
    2904:	1141                	addi	sp,sp,-16
    2906:	00006517          	auipc	a0,0x6
    290a:	eda50513          	addi	a0,a0,-294 # 87e0 <input1_data+0x2040>
    290e:	e406                	sd	ra,8(sp)
    2910:	cc7ff0ef          	jal	ra,25d6 <printstr>
    2914:	60a2                	ld	ra,8(sp)
    2916:	557d                	li	a0,-1
    2918:	0141                	addi	sp,sp,16
    291a:	8082                	ret

.data 區段的反組譯：

0000000000002920 <verify_data>:
    2920:	0000                	unimp
    2922:	0000                	unimp
    2924:	0000                	unimp
    2926:	4020                	lw	s0,64(s0)
    2928:	0000                	unimp
    292a:	0000                	unimp
    292c:	0000                	unimp
    292e:	4035                	c.li	zero,13
    2930:	0000                	unimp
    2932:	0000                	unimp
    2934:	0000                	unimp
    2936:	4024                	lw	s1,64(s0)
    2938:	0000                	unimp
    293a:	0000                	unimp
    293c:	0000                	unimp
    293e:	4035                	c.li	zero,13
    2940:	0000                	unimp
    2942:	0000                	unimp
    2944:	0000                	unimp
    2946:	4034                	lw	a3,64(s0)
    2948:	0000                	unimp
    294a:	0000                	unimp
    294c:	0000                	unimp
    294e:	4030                	lw	a2,64(s0)
    2950:	0000                	unimp
    2952:	0000                	unimp
    2954:	0000                	unimp
    2956:	4008                	lw	a0,0(s0)
    2958:	0000                	unimp
    295a:	0000                	unimp
    295c:	0000                	unimp
    295e:	4034                	lw	a3,64(s0)
    2960:	0000                	unimp
    2962:	0000                	unimp
    2964:	0000                	unimp
    2966:	402e                	.2byte	0x402e
    2968:	0000                	unimp
    296a:	0000                	unimp
    296c:	0000                	unimp
    296e:	4031                	c.li	zero,12
    2970:	0000                	unimp
    2972:	0000                	unimp
    2974:	0000                	unimp
    2976:	402e                	.2byte	0x402e
    2978:	0000                	unimp
    297a:	0000                	unimp
    297c:	0000                	unimp
    297e:	4024                	lw	s1,64(s0)
    2980:	0000                	unimp
    2982:	0000                	unimp
    2984:	0000                	unimp
    2986:	00004037          	lui	zero,0x4
    298a:	0000                	unimp
    298c:	0000                	unimp
    298e:	0000403b          	.4byte	0x403b
    2992:	0000                	unimp
    2994:	0000                	unimp
    2996:	4038                	lw	a4,64(s0)
    2998:	0000                	unimp
    299a:	0000                	unimp
    299c:	0000                	unimp
    299e:	4031                	c.li	zero,12
    29a0:	0000                	unimp
    29a2:	0000                	unimp
    29a4:	0000                	unimp
    29a6:	4032                	.2byte	0x4032
    29a8:	0000                	unimp
    29aa:	0000                	unimp
    29ac:	0000                	unimp
    29ae:	4032                	.2byte	0x4032
    29b0:	0000                	unimp
    29b2:	0000                	unimp
    29b4:	0000                	unimp
    29b6:	4030                	lw	a2,64(s0)
    29b8:	0000                	unimp
    29ba:	0000                	unimp
    29bc:	0000                	unimp
    29be:	4031                	c.li	zero,12
    29c0:	0000                	unimp
    29c2:	0000                	unimp
    29c4:	0000                	unimp
    29c6:	4031                	c.li	zero,12
    29c8:	0000                	unimp
    29ca:	0000                	unimp
    29cc:	0000                	unimp
    29ce:	402a                	.2byte	0x402a
    29d0:	0000                	unimp
    29d2:	0000                	unimp
    29d4:	0000                	unimp
    29d6:	4039                	c.li	zero,14
    29d8:	0000                	unimp
    29da:	0000                	unimp
    29dc:	0000                	unimp
    29de:	403d                	c.li	zero,15
    29e0:	0000                	unimp
    29e2:	0000                	unimp
    29e4:	0000                	unimp
    29e6:	4038                	lw	a4,64(s0)
    29e8:	0000                	unimp
    29ea:	0000                	unimp
    29ec:	0000                	unimp
    29ee:	402c                	lw	a1,64(s0)
    29f0:	0000                	unimp
    29f2:	0000                	unimp
    29f4:	0000                	unimp
    29f6:	403d                	c.li	zero,15
    29f8:	0000                	unimp
    29fa:	0000                	unimp
    29fc:	0000                	unimp
    29fe:	4031                	c.li	zero,12
    2a00:	0000                	unimp
    2a02:	0000                	unimp
    2a04:	0000                	unimp
    2a06:	402c                	lw	a1,64(s0)
    2a08:	0000                	unimp
    2a0a:	0000                	unimp
    2a0c:	0000                	unimp
    2a0e:	4035                	c.li	zero,13
    2a10:	0000                	unimp
    2a12:	0000                	unimp
    2a14:	0000                	unimp
    2a16:	4036                	.2byte	0x4036
    2a18:	0000                	unimp
    2a1a:	0000                	unimp
    2a1c:	0000                	unimp
    2a1e:	00004033          	xor	zero,zero,zero
    2a22:	0000                	unimp
    2a24:	0000                	unimp
    2a26:	4010                	lw	a2,0(s0)
    2a28:	0000                	unimp
    2a2a:	0000                	unimp
    2a2c:	0000                	unimp
    2a2e:	4032                	.2byte	0x4032
    2a30:	0000                	unimp
    2a32:	0000                	unimp
    2a34:	0000                	unimp
    2a36:	403a                	.2byte	0x403a
    2a38:	0000                	unimp
    2a3a:	0000                	unimp
    2a3c:	0000                	unimp
    2a3e:	4032                	.2byte	0x4032
    2a40:	0000                	unimp
    2a42:	0000                	unimp
    2a44:	0000                	unimp
    2a46:	00004033          	xor	zero,zero,zero
    2a4a:	0000                	unimp
    2a4c:	0000                	unimp
    2a4e:	403d                	c.li	zero,15
    2a50:	0000                	unimp
    2a52:	0000                	unimp
    2a54:	0000                	unimp
    2a56:	402c                	lw	a1,64(s0)
    2a58:	0000                	unimp
    2a5a:	0000                	unimp
    2a5c:	0000                	unimp
    2a5e:	4026                	.2byte	0x4026
    2a60:	0000                	unimp
    2a62:	0000                	unimp
    2a64:	0000                	unimp
    2a66:	00004037          	lui	zero,0x4
    2a6a:	0000                	unimp
    2a6c:	0000                	unimp
    2a6e:	00004033          	xor	zero,zero,zero
    2a72:	0000                	unimp
    2a74:	0000                	unimp
    2a76:	4031                	c.li	zero,12
    2a78:	0000                	unimp
    2a7a:	0000                	unimp
    2a7c:	0000                	unimp
    2a7e:	403d                	c.li	zero,15
    2a80:	0000                	unimp
    2a82:	0000                	unimp
    2a84:	0000                	unimp
    2a86:	4038                	lw	a4,64(s0)
    2a88:	0000                	unimp
    2a8a:	0000                	unimp
    2a8c:	0000                	unimp
    2a8e:	402a                	.2byte	0x402a
    2a90:	0000                	unimp
    2a92:	0000                	unimp
    2a94:	0000                	unimp
    2a96:	00004037          	lui	zero,0x4
    2a9a:	0000                	unimp
    2a9c:	0000                	unimp
    2a9e:	4034                	lw	a3,64(s0)
    2aa0:	0000                	unimp
    2aa2:	0000                	unimp
    2aa4:	0000                	unimp
    2aa6:	403c                	lw	a5,64(s0)
    2aa8:	0000                	unimp
    2aaa:	0000                	unimp
    2aac:	0000                	unimp
    2aae:	4039                	c.li	zero,14
    2ab0:	0000                	unimp
    2ab2:	0000                	unimp
    2ab4:	0000                	unimp
    2ab6:	402a                	.2byte	0x402a
    2ab8:	0000                	unimp
    2aba:	0000                	unimp
    2abc:	0000                	unimp
    2abe:	403e                	.2byte	0x403e
    2ac0:	0000                	unimp
    2ac2:	0000                	unimp
    2ac4:	0000                	unimp
    2ac6:	403c                	lw	a5,64(s0)
    2ac8:	0000                	unimp
    2aca:	0000                	unimp
    2acc:	0000                	unimp
    2ace:	4038                	lw	a4,64(s0)
    2ad0:	0000                	unimp
    2ad2:	0000                	unimp
    2ad4:	0000                	unimp
    2ad6:	0000403b          	.4byte	0x403b
    2ada:	0000                	unimp
    2adc:	0000                	unimp
    2ade:	402a                	.2byte	0x402a
    2ae0:	0000                	unimp
    2ae2:	0000                	unimp
    2ae4:	0000                	unimp
    2ae6:	4018                	lw	a4,0(s0)
    2ae8:	0000                	unimp
    2aea:	0000                	unimp
    2aec:	0000                	unimp
    2aee:	4034                	lw	a3,64(s0)
    2af0:	0000                	unimp
    2af2:	0000                	unimp
    2af4:	0000                	unimp
    2af6:	0000403b          	.4byte	0x403b
    2afa:	0000                	unimp
    2afc:	0000                	unimp
    2afe:	4031                	c.li	zero,12
    2b00:	0000                	unimp
    2b02:	0000                	unimp
    2b04:	0000                	unimp
    2b06:	4032                	.2byte	0x4032
    2b08:	0000                	unimp
    2b0a:	0000                	unimp
    2b0c:	0000                	unimp
    2b0e:	4038                	lw	a4,64(s0)
    2b10:	0000                	unimp
    2b12:	0000                	unimp
    2b14:	0000                	unimp
    2b16:	4018                	lw	a4,0(s0)
    2b18:	0000                	unimp
    2b1a:	0000                	unimp
    2b1c:	0000                	unimp
    2b1e:	403e                	.2byte	0x403e
    2b20:	0000                	unimp
    2b22:	0000                	unimp
    2b24:	0000                	unimp
    2b26:	4038                	lw	a4,64(s0)
    2b28:	0000                	unimp
    2b2a:	0000                	unimp
    2b2c:	0000                	unimp
    2b2e:	4028                	lw	a0,64(s0)
    2b30:	0000                	unimp
    2b32:	0000                	unimp
    2b34:	0000                	unimp
    2b36:	4034                	lw	a3,64(s0)
    2b38:	0000                	unimp
    2b3a:	0000                	unimp
    2b3c:	0000                	unimp
    2b3e:	0000403f 00000000 	.8byte	0x403f
    2b46:	402c                	lw	a1,64(s0)
    2b48:	0000                	unimp
    2b4a:	0000                	unimp
    2b4c:	0000                	unimp
    2b4e:	402a                	.2byte	0x402a
    2b50:	0000                	unimp
    2b52:	0000                	unimp
    2b54:	0000                	unimp
    2b56:	4024                	lw	s1,64(s0)
    2b58:	0000                	unimp
    2b5a:	0000                	unimp
    2b5c:	0000                	unimp
    2b5e:	4039                	c.li	zero,14
    2b60:	0000                	unimp
    2b62:	0000                	unimp
    2b64:	0000                	unimp
    2b66:	4034                	lw	a3,64(s0)
    2b68:	0000                	unimp
    2b6a:	0000                	unimp
    2b6c:	0000                	unimp
    2b6e:	4026                	.2byte	0x4026
    2b70:	0000                	unimp
    2b72:	0000                	unimp
    2b74:	0000                	unimp
    2b76:	402a                	.2byte	0x402a
    2b78:	0000                	unimp
    2b7a:	0000                	unimp
    2b7c:	0000                	unimp
    2b7e:	4032                	.2byte	0x4032
    2b80:	0000                	unimp
    2b82:	0000                	unimp
    2b84:	0000                	unimp
    2b86:	00004037          	lui	zero,0x4
    2b8a:	0000                	unimp
    2b8c:	0000                	unimp
    2b8e:	401c                	lw	a5,0(s0)
    2b90:	0000                	unimp
    2b92:	0000                	unimp
    2b94:	0000                	unimp
    2b96:	4024                	lw	s1,64(s0)
    2b98:	0000                	unimp
    2b9a:	0000                	unimp
    2b9c:	0000                	unimp
    2b9e:	0000403b          	.4byte	0x403b
    2ba2:	0000                	unimp
    2ba4:	0000                	unimp
    2ba6:	4031                	c.li	zero,12
    2ba8:	0000                	unimp
    2baa:	0000                	unimp
    2bac:	0000                	unimp
    2bae:	4014                	lw	a3,0(s0)
    2bb0:	0000                	unimp
    2bb2:	0000                	unimp
    2bb4:	0000                	unimp
    2bb6:	4035                	c.li	zero,13
    2bb8:	0000                	unimp
    2bba:	0000                	unimp
    2bbc:	0000                	unimp
    2bbe:	4030                	lw	a2,64(s0)
    2bc0:	0000                	unimp
    2bc2:	0000                	unimp
    2bc4:	0000                	unimp
    2bc6:	4036                	.2byte	0x4036
    2bc8:	0000                	unimp
    2bca:	0000                	unimp
    2bcc:	0000                	unimp
    2bce:	4035                	c.li	zero,13
    2bd0:	0000                	unimp
    2bd2:	0000                	unimp
    2bd4:	0000                	unimp
    2bd6:	4035                	c.li	zero,13
    2bd8:	0000                	unimp
    2bda:	0000                	unimp
    2bdc:	0000                	unimp
    2bde:	00004033          	xor	zero,zero,zero
    2be2:	0000                	unimp
    2be4:	0000                	unimp
    2be6:	4034                	lw	a3,64(s0)
    2be8:	0000                	unimp
    2bea:	0000                	unimp
    2bec:	0000                	unimp
    2bee:	401c                	lw	a5,0(s0)
    2bf0:	0000                	unimp
    2bf2:	0000                	unimp
    2bf4:	0000                	unimp
    2bf6:	403d                	c.li	zero,15
    2bf8:	0000                	unimp
    2bfa:	0000                	unimp
    2bfc:	0000                	unimp
    2bfe:	4018                	lw	a4,0(s0)
    2c00:	0000                	unimp
    2c02:	0000                	unimp
    2c04:	0000                	unimp
    2c06:	4041                	c.li	zero,16
    2c08:	0000                	unimp
    2c0a:	0000                	unimp
    2c0c:	0000                	unimp
    2c0e:	4035                	c.li	zero,13
    2c10:	0000                	unimp
    2c12:	0000                	unimp
    2c14:	0000                	unimp
    2c16:	4030                	lw	a2,64(s0)
    2c18:	0000                	unimp
    2c1a:	0000                	unimp
    2c1c:	0000                	unimp
    2c1e:	402a                	.2byte	0x402a
    2c20:	0000                	unimp
    2c22:	0000                	unimp
    2c24:	0000                	unimp
    2c26:	4032                	.2byte	0x4032
    2c28:	0000                	unimp
    2c2a:	0000                	unimp
    2c2c:	0000                	unimp
    2c2e:	4035                	c.li	zero,13
    2c30:	0000                	unimp
    2c32:	0000                	unimp
    2c34:	0000                	unimp
    2c36:	4034                	lw	a3,64(s0)
    2c38:	0000                	unimp
    2c3a:	0000                	unimp
    2c3c:	0000                	unimp
    2c3e:	4024                	lw	s1,64(s0)
    2c40:	0000                	unimp
    2c42:	0000                	unimp
    2c44:	0000                	unimp
    2c46:	0000403b          	.4byte	0x403b
    2c4a:	0000                	unimp
    2c4c:	0000                	unimp
    2c4e:	4039                	c.li	zero,14
    2c50:	0000                	unimp
    2c52:	0000                	unimp
    2c54:	0000                	unimp
    2c56:	4024                	lw	s1,64(s0)
    2c58:	0000                	unimp
    2c5a:	0000                	unimp
    2c5c:	0000                	unimp
    2c5e:	4014                	lw	a3,0(s0)
    2c60:	0000                	unimp
    2c62:	0000                	unimp
    2c64:	0000                	unimp
    2c66:	4030                	lw	a2,64(s0)
    2c68:	0000                	unimp
    2c6a:	0000                	unimp
    2c6c:	0000                	unimp
    2c6e:	0000403b          	.4byte	0x403b
    2c72:	0000                	unimp
    2c74:	0000                	unimp
    2c76:	403a                	.2byte	0x403a
    2c78:	0000                	unimp
    2c7a:	0000                	unimp
    2c7c:	0000                	unimp
    2c7e:	4039                	c.li	zero,14
    2c80:	0000                	unimp
    2c82:	0000                	unimp
    2c84:	0000                	unimp
    2c86:	0000403b          	.4byte	0x403b
    2c8a:	0000                	unimp
    2c8c:	0000                	unimp
    2c8e:	00004037          	lui	zero,0x4
    2c92:	0000                	unimp
    2c94:	0000                	unimp
    2c96:	4032                	.2byte	0x4032
    2c98:	0000                	unimp
    2c9a:	0000                	unimp
    2c9c:	0000                	unimp
    2c9e:	4041                	c.li	zero,16
    2ca0:	0000                	unimp
    2ca2:	0000                	unimp
    2ca4:	0000                	unimp
    2ca6:	4031                	c.li	zero,12
    2ca8:	0000                	unimp
    2caa:	0000                	unimp
    2cac:	0000                	unimp
    2cae:	4022                	.2byte	0x4022
    2cb0:	0000                	unimp
    2cb2:	0000                	unimp
    2cb4:	0000                	unimp
    2cb6:	4024                	lw	s1,64(s0)
    2cb8:	0000                	unimp
    2cba:	0000                	unimp
    2cbc:	0000                	unimp
    2cbe:	4031                	c.li	zero,12
    2cc0:	0000                	unimp
    2cc2:	0000                	unimp
    2cc4:	0000                	unimp
    2cc6:	4031                	c.li	zero,12
    2cc8:	0000                	unimp
    2cca:	0000                	unimp
    2ccc:	0000                	unimp
    2cce:	4030                	lw	a2,64(s0)
    2cd0:	0000                	unimp
    2cd2:	0000                	unimp
    2cd4:	0000                	unimp
    2cd6:	4028                	lw	a0,64(s0)
    2cd8:	0000                	unimp
    2cda:	0000                	unimp
    2cdc:	0000                	unimp
    2cde:	00004037          	lui	zero,0x4
    2ce2:	0000                	unimp
    2ce4:	0000                	unimp
    2ce6:	402c                	lw	a1,64(s0)
    2ce8:	0000                	unimp
    2cea:	0000                	unimp
    2cec:	0000                	unimp
    2cee:	4014                	lw	a3,0(s0)
    2cf0:	0000                	unimp
    2cf2:	0000                	unimp
    2cf4:	0000                	unimp
    2cf6:	402e                	.2byte	0x402e
    2cf8:	0000                	unimp
    2cfa:	0000                	unimp
    2cfc:	0000                	unimp
    2cfe:	4035                	c.li	zero,13
    2d00:	0000                	unimp
    2d02:	0000                	unimp
    2d04:	0000                	unimp
    2d06:	4034                	lw	a3,64(s0)
    2d08:	0000                	unimp
    2d0a:	0000                	unimp
    2d0c:	0000                	unimp
    2d0e:	402a                	.2byte	0x402a
    2d10:	0000                	unimp
    2d12:	0000                	unimp
    2d14:	0000                	unimp
    2d16:	4032                	.2byte	0x4032
    2d18:	0000                	unimp
    2d1a:	0000                	unimp
    2d1c:	0000                	unimp
    2d1e:	4028                	lw	a0,64(s0)
    2d20:	0000                	unimp
    2d22:	0000                	unimp
    2d24:	8000                	.2byte	0x8000
    2d26:	4041                	c.li	zero,16
    2d28:	0000                	unimp
    2d2a:	0000                	unimp
    2d2c:	0000                	unimp
    2d2e:	4030                	lw	a2,64(s0)
    2d30:	0000                	unimp
    2d32:	0000                	unimp
    2d34:	8000                	.2byte	0x8000
    2d36:	4040                	lw	s0,4(s0)
    2d38:	0000                	unimp
    2d3a:	0000                	unimp
    2d3c:	0000                	unimp
    2d3e:	4040                	lw	s0,4(s0)
    2d40:	0000                	unimp
    2d42:	0000                	unimp
    2d44:	0000                	unimp
    2d46:	4026                	.2byte	0x4026
    2d48:	0000                	unimp
    2d4a:	0000                	unimp
    2d4c:	0000                	unimp
    2d4e:	403d                	c.li	zero,15
    2d50:	0000                	unimp
    2d52:	0000                	unimp
    2d54:	0000                	unimp
    2d56:	0000403f 00000000 	.8byte	0x403f
    2d5e:	402e                	.2byte	0x402e
    2d60:	0000                	unimp
    2d62:	0000                	unimp
    2d64:	0000                	unimp
    2d66:	4028                	lw	a0,64(s0)
    2d68:	0000                	unimp
    2d6a:	0000                	unimp
    2d6c:	0000                	unimp
    2d6e:	4030                	lw	a2,64(s0)
    2d70:	0000                	unimp
    2d72:	0000                	unimp
    2d74:	0000                	unimp
    2d76:	4028                	lw	a0,64(s0)
    2d78:	0000                	unimp
    2d7a:	0000                	unimp
    2d7c:	0000                	unimp
    2d7e:	4030                	lw	a2,64(s0)
    2d80:	0000                	unimp
    2d82:	0000                	unimp
    2d84:	0000                	unimp
    2d86:	4039                	c.li	zero,14
    2d88:	0000                	unimp
    2d8a:	0000                	unimp
    2d8c:	0000                	unimp
    2d8e:	4022                	.2byte	0x4022
    2d90:	0000                	unimp
    2d92:	0000                	unimp
    2d94:	0000                	unimp
    2d96:	4035                	c.li	zero,13
    2d98:	0000                	unimp
    2d9a:	0000                	unimp
    2d9c:	0000                	unimp
    2d9e:	4020                	lw	s0,64(s0)
    2da0:	0000                	unimp
    2da2:	0000                	unimp
    2da4:	0000                	unimp
    2da6:	401c                	lw	a5,0(s0)
    2da8:	0000                	unimp
    2daa:	0000                	unimp
    2dac:	0000                	unimp
    2dae:	402c                	lw	a1,64(s0)
    2db0:	0000                	unimp
    2db2:	0000                	unimp
    2db4:	0000                	unimp
    2db6:	4035                	c.li	zero,13
    2db8:	0000                	unimp
    2dba:	0000                	unimp
    2dbc:	0000                	unimp
    2dbe:	4022                	.2byte	0x4022
    2dc0:	0000                	unimp
    2dc2:	0000                	unimp
    2dc4:	0000                	unimp
    2dc6:	00004037          	lui	zero,0x4
    2dca:	0000                	unimp
    2dcc:	0000                	unimp
    2dce:	403c                	lw	a5,64(s0)
    2dd0:	0000                	unimp
    2dd2:	0000                	unimp
    2dd4:	0000                	unimp
    2dd6:	4035                	c.li	zero,13
    2dd8:	0000                	unimp
    2dda:	0000                	unimp
    2ddc:	0000                	unimp
    2dde:	4026                	.2byte	0x4026
    2de0:	0000                	unimp
    2de2:	0000                	unimp
    2de4:	0000                	unimp
    2de6:	4026                	.2byte	0x4026
    2de8:	0000                	unimp
    2dea:	0000                	unimp
    2dec:	0000                	unimp
    2dee:	4026                	.2byte	0x4026
    2df0:	0000                	unimp
    2df2:	0000                	unimp
    2df4:	0000                	unimp
    2df6:	402a                	.2byte	0x402a
    2df8:	0000                	unimp
    2dfa:	0000                	unimp
    2dfc:	0000                	unimp
    2dfe:	4022                	.2byte	0x4022
    2e00:	0000                	unimp
    2e02:	0000                	unimp
    2e04:	0000                	unimp
    2e06:	4039                	c.li	zero,14
    2e08:	0000                	unimp
    2e0a:	0000                	unimp
    2e0c:	0000                	unimp
    2e0e:	00004037          	lui	zero,0x4
    2e12:	0000                	unimp
    2e14:	0000                	unimp
    2e16:	4020                	lw	s0,64(s0)
    2e18:	0000                	unimp
    2e1a:	0000                	unimp
    2e1c:	0000                	unimp
    2e1e:	4031                	c.li	zero,12
    2e20:	0000                	unimp
    2e22:	0000                	unimp
    2e24:	0000                	unimp
    2e26:	402e                	.2byte	0x402e
    2e28:	0000                	unimp
    2e2a:	0000                	unimp
    2e2c:	0000                	unimp
    2e2e:	4030                	lw	a2,64(s0)
    2e30:	0000                	unimp
    2e32:	0000                	unimp
    2e34:	0000                	unimp
    2e36:	4032                	.2byte	0x4032
    2e38:	0000                	unimp
    2e3a:	0000                	unimp
    2e3c:	0000                	unimp
    2e3e:	4034                	lw	a3,64(s0)
    2e40:	0000                	unimp
    2e42:	0000                	unimp
    2e44:	0000                	unimp
    2e46:	4039                	c.li	zero,14
    2e48:	0000                	unimp
    2e4a:	0000                	unimp
    2e4c:	0000                	unimp
    2e4e:	4038                	lw	a4,64(s0)
    2e50:	0000                	unimp
    2e52:	0000                	unimp
    2e54:	0000                	unimp
    2e56:	4018                	lw	a4,0(s0)
    2e58:	0000                	unimp
    2e5a:	0000                	unimp
    2e5c:	0000                	unimp
    2e5e:	4030                	lw	a2,64(s0)
    2e60:	0000                	unimp
    2e62:	0000                	unimp
    2e64:	0000                	unimp
    2e66:	4039                	c.li	zero,14
    2e68:	0000                	unimp
    2e6a:	0000                	unimp
    2e6c:	0000                	unimp
    2e6e:	4031                	c.li	zero,12
    2e70:	0000                	unimp
    2e72:	0000                	unimp
    2e74:	0000                	unimp
    2e76:	4032                	.2byte	0x4032
    2e78:	0000                	unimp
    2e7a:	0000                	unimp
    2e7c:	0000                	unimp
    2e7e:	00004033          	xor	zero,zero,zero
    2e82:	0000                	unimp
    2e84:	0000                	unimp
    2e86:	4034                	lw	a3,64(s0)
    2e88:	0000                	unimp
    2e8a:	0000                	unimp
    2e8c:	0000                	unimp
    2e8e:	4034                	lw	a3,64(s0)
    2e90:	0000                	unimp
    2e92:	0000                	unimp
    2e94:	0000                	unimp
    2e96:	4030                	lw	a2,64(s0)
    2e98:	0000                	unimp
    2e9a:	0000                	unimp
    2e9c:	0000                	unimp
    2e9e:	402e                	.2byte	0x402e
    2ea0:	0000                	unimp
    2ea2:	0000                	unimp
    2ea4:	0000                	unimp
    2ea6:	4014                	lw	a3,0(s0)
    2ea8:	0000                	unimp
    2eaa:	0000                	unimp
    2eac:	0000                	unimp
    2eae:	4036                	.2byte	0x4036
    2eb0:	0000                	unimp
    2eb2:	0000                	unimp
    2eb4:	0000                	unimp
    2eb6:	402e                	.2byte	0x402e
    2eb8:	0000                	unimp
    2eba:	0000                	unimp
    2ebc:	0000                	unimp
    2ebe:	0000403f 00000000 	.8byte	0x403f
    2ec6:	4035                	c.li	zero,13
    2ec8:	0000                	unimp
    2eca:	0000                	unimp
    2ecc:	0000                	unimp
    2ece:	0000403f 00000000 	.8byte	0x403f
    2ed6:	4028                	lw	a0,64(s0)
    2ed8:	0000                	unimp
    2eda:	0000                	unimp
    2edc:	0000                	unimp
    2ede:	4041                	c.li	zero,16
    2ee0:	0000                	unimp
    2ee2:	0000                	unimp
    2ee4:	0000                	unimp
    2ee6:	403c                	lw	a5,64(s0)
    2ee8:	0000                	unimp
    2eea:	0000                	unimp
    2eec:	0000                	unimp
    2eee:	402e                	.2byte	0x402e
    2ef0:	0000                	unimp
    2ef2:	0000                	unimp
    2ef4:	0000                	unimp
    2ef6:	4000                	lw	s0,0(s0)
    2ef8:	0000                	unimp
    2efa:	0000                	unimp
    2efc:	0000                	unimp
    2efe:	00004033          	xor	zero,zero,zero
    2f02:	0000                	unimp
    2f04:	0000                	unimp
    2f06:	402c                	lw	a1,64(s0)
    2f08:	0000                	unimp
    2f0a:	0000                	unimp
    2f0c:	0000                	unimp
    2f0e:	4008                	lw	a0,0(s0)
    2f10:	0000                	unimp
    2f12:	0000                	unimp
    2f14:	0000                	unimp
    2f16:	4022                	.2byte	0x4022
    2f18:	0000                	unimp
    2f1a:	0000                	unimp
    2f1c:	0000                	unimp
    2f1e:	402a                	.2byte	0x402a
    2f20:	0000                	unimp
    2f22:	0000                	unimp
    2f24:	0000                	unimp
    2f26:	4036                	.2byte	0x4036
    2f28:	0000                	unimp
    2f2a:	0000                	unimp
    2f2c:	0000                	unimp
    2f2e:	00004033          	xor	zero,zero,zero
    2f32:	0000                	unimp
    2f34:	0000                	unimp
    2f36:	4018                	lw	a4,0(s0)
    2f38:	0000                	unimp
    2f3a:	0000                	unimp
    2f3c:	0000                	unimp
    2f3e:	4024                	lw	s1,64(s0)
    2f40:	0000                	unimp
    2f42:	0000                	unimp
    2f44:	0000                	unimp
    2f46:	00004033          	xor	zero,zero,zero
    2f4a:	0000                	unimp
    2f4c:	0000                	unimp
    2f4e:	4018                	lw	a4,0(s0)
    2f50:	0000                	unimp
    2f52:	0000                	unimp
    2f54:	0000                	unimp
    2f56:	403d                	c.li	zero,15
    2f58:	0000                	unimp
    2f5a:	0000                	unimp
    2f5c:	0000                	unimp
    2f5e:	4028                	lw	a0,64(s0)
    2f60:	0000                	unimp
    2f62:	0000                	unimp
    2f64:	0000                	unimp
    2f66:	0000403b          	.4byte	0x403b
    2f6a:	0000                	unimp
    2f6c:	0000                	unimp
    2f6e:	0000403b          	.4byte	0x403b
    2f72:	0000                	unimp
    2f74:	0000                	unimp
    2f76:	4035                	c.li	zero,13
    2f78:	0000                	unimp
    2f7a:	0000                	unimp
    2f7c:	0000                	unimp
    2f7e:	4034                	lw	a3,64(s0)
    2f80:	0000                	unimp
    2f82:	0000                	unimp
    2f84:	0000                	unimp
    2f86:	0000403b          	.4byte	0x403b
    2f8a:	0000                	unimp
    2f8c:	0000                	unimp
    2f8e:	4028                	lw	a0,64(s0)
    2f90:	0000                	unimp
    2f92:	0000                	unimp
    2f94:	0000                	unimp
    2f96:	4008                	lw	a0,0(s0)
    2f98:	0000                	unimp
    2f9a:	0000                	unimp
    2f9c:	0000                	unimp
    2f9e:	4024                	lw	s1,64(s0)
    2fa0:	0000                	unimp
    2fa2:	0000                	unimp
    2fa4:	0000                	unimp
    2fa6:	4028                	lw	a0,64(s0)
    2fa8:	0000                	unimp
    2faa:	0000                	unimp
    2fac:	0000                	unimp
    2fae:	4028                	lw	a0,64(s0)
    2fb0:	0000                	unimp
    2fb2:	0000                	unimp
    2fb4:	0000                	unimp
    2fb6:	4040                	lw	s0,4(s0)
    2fb8:	0000                	unimp
    2fba:	0000                	unimp
    2fbc:	0000                	unimp
    2fbe:	00004033          	xor	zero,zero,zero
    2fc2:	0000                	unimp
    2fc4:	0000                	unimp
    2fc6:	403a                	.2byte	0x403a
    2fc8:	0000                	unimp
    2fca:	0000                	unimp
    2fcc:	0000                	unimp
    2fce:	401c                	lw	a5,0(s0)
    2fd0:	0000                	unimp
    2fd2:	0000                	unimp
    2fd4:	0000                	unimp
    2fd6:	401c                	lw	a5,0(s0)
    2fd8:	0000                	unimp
    2fda:	0000                	unimp
    2fdc:	0000                	unimp
    2fde:	4024                	lw	s1,64(s0)
    2fe0:	0000                	unimp
    2fe2:	0000                	unimp
    2fe4:	0000                	unimp
    2fe6:	4040                	lw	s0,4(s0)
    2fe8:	0000                	unimp
    2fea:	0000                	unimp
    2fec:	0000                	unimp
    2fee:	4026                	.2byte	0x4026
    2ff0:	0000                	unimp
    2ff2:	0000                	unimp
    2ff4:	0000                	unimp
    2ff6:	402a                	.2byte	0x402a
    2ff8:	0000                	unimp
    2ffa:	0000                	unimp
    2ffc:	0000                	unimp
    2ffe:	00004037          	lui	zero,0x4
    3002:	0000                	unimp
    3004:	0000                	unimp
    3006:	00004033          	xor	zero,zero,zero
    300a:	0000                	unimp
    300c:	0000                	unimp
    300e:	4038                	lw	a4,64(s0)
    3010:	0000                	unimp
    3012:	0000                	unimp
    3014:	0000                	unimp
    3016:	4039                	c.li	zero,14
    3018:	0000                	unimp
    301a:	0000                	unimp
    301c:	0000                	unimp
    301e:	4030                	lw	a2,64(s0)
    3020:	0000                	unimp
    3022:	0000                	unimp
    3024:	0000                	unimp
    3026:	4036                	.2byte	0x4036
    3028:	0000                	unimp
    302a:	0000                	unimp
    302c:	0000                	unimp
    302e:	4036                	.2byte	0x4036
    3030:	0000                	unimp
    3032:	0000                	unimp
    3034:	0000                	unimp
    3036:	4014                	lw	a3,0(s0)
    3038:	0000                	unimp
    303a:	0000                	unimp
    303c:	0000                	unimp
    303e:	4028                	lw	a0,64(s0)
    3040:	0000                	unimp
    3042:	0000                	unimp
    3044:	0000                	unimp
    3046:	4035                	c.li	zero,13
    3048:	0000                	unimp
    304a:	0000                	unimp
    304c:	0000                	unimp
    304e:	4031                	c.li	zero,12
    3050:	0000                	unimp
    3052:	0000                	unimp
    3054:	0000                	unimp
    3056:	00004037          	lui	zero,0x4
    305a:	0000                	unimp
    305c:	0000                	unimp
    305e:	4032                	.2byte	0x4032
    3060:	0000                	unimp
    3062:	0000                	unimp
    3064:	0000                	unimp
    3066:	4036                	.2byte	0x4036
    3068:	0000                	unimp
    306a:	0000                	unimp
    306c:	0000                	unimp
    306e:	3ff0                	fld	fa2,248(a5)
    3070:	0000                	unimp
    3072:	0000                	unimp
    3074:	0000                	unimp
    3076:	4028                	lw	a0,64(s0)
    3078:	0000                	unimp
    307a:	0000                	unimp
    307c:	0000                	unimp
    307e:	4032                	.2byte	0x4032
    3080:	0000                	unimp
    3082:	0000                	unimp
    3084:	0000                	unimp
    3086:	4020                	lw	s0,64(s0)
    3088:	0000                	unimp
    308a:	0000                	unimp
    308c:	0000                	unimp
    308e:	4035                	c.li	zero,13
    3090:	0000                	unimp
    3092:	0000                	unimp
    3094:	0000                	unimp
    3096:	4018                	lw	a4,0(s0)
    3098:	0000                	unimp
    309a:	0000                	unimp
    309c:	0000                	unimp
    309e:	4034                	lw	a3,64(s0)
    30a0:	0000                	unimp
    30a2:	0000                	unimp
    30a4:	0000                	unimp
    30a6:	403c                	lw	a5,64(s0)
    30a8:	0000                	unimp
    30aa:	0000                	unimp
    30ac:	0000                	unimp
    30ae:	4020                	lw	s0,64(s0)
    30b0:	0000                	unimp
    30b2:	0000                	unimp
    30b4:	0000                	unimp
    30b6:	0000403b          	.4byte	0x403b
    30ba:	0000                	unimp
    30bc:	0000                	unimp
    30be:	4024                	lw	s1,64(s0)
    30c0:	0000                	unimp
    30c2:	0000                	unimp
    30c4:	0000                	unimp
    30c6:	4039                	c.li	zero,14
    30c8:	0000                	unimp
    30ca:	0000                	unimp
    30cc:	0000                	unimp
    30ce:	402a                	.2byte	0x402a
    30d0:	0000                	unimp
    30d2:	0000                	unimp
    30d4:	0000                	unimp
    30d6:	4035                	c.li	zero,13
    30d8:	0000                	unimp
    30da:	0000                	unimp
    30dc:	0000                	unimp
    30de:	4039                	c.li	zero,14
    30e0:	0000                	unimp
    30e2:	0000                	unimp
    30e4:	0000                	unimp
    30e6:	402a                	.2byte	0x402a
    30e8:	0000                	unimp
    30ea:	0000                	unimp
    30ec:	0000                	unimp
    30ee:	4040                	lw	s0,4(s0)
    30f0:	0000                	unimp
    30f2:	0000                	unimp
    30f4:	8000                	.2byte	0x8000
    30f6:	4040                	lw	s0,4(s0)
    30f8:	0000                	unimp
    30fa:	0000                	unimp
    30fc:	0000                	unimp
    30fe:	4030                	lw	a2,64(s0)
    3100:	0000                	unimp
    3102:	0000                	unimp
    3104:	0000                	unimp
    3106:	4026                	.2byte	0x4026
    3108:	0000                	unimp
    310a:	0000                	unimp
    310c:	0000                	unimp
    310e:	4010                	lw	a2,0(s0)
    3110:	0000                	unimp
    3112:	0000                	unimp
    3114:	0000                	unimp
    3116:	403c                	lw	a5,64(s0)
    3118:	0000                	unimp
    311a:	0000                	unimp
    311c:	0000                	unimp
    311e:	4034                	lw	a3,64(s0)
    3120:	0000                	unimp
    3122:	0000                	unimp
    3124:	0000                	unimp
    3126:	4026                	.2byte	0x4026
    3128:	0000                	unimp
    312a:	0000                	unimp
    312c:	0000                	unimp
    312e:	00004037          	lui	zero,0x4
    3132:	0000                	unimp
    3134:	0000                	unimp
    3136:	00004033          	xor	zero,zero,zero
    313a:	0000                	unimp
    313c:	0000                	unimp
    313e:	403c                	lw	a5,64(s0)
    3140:	0000                	unimp
    3142:	0000                	unimp
    3144:	0000                	unimp
    3146:	4036                	.2byte	0x4036
    3148:	0000                	unimp
    314a:	0000                	unimp
    314c:	0000                	unimp
    314e:	402c                	lw	a1,64(s0)
    3150:	0000                	unimp
    3152:	0000                	unimp
    3154:	0000                	unimp
    3156:	4035                	c.li	zero,13
    3158:	0000                	unimp
    315a:	0000                	unimp
    315c:	0000                	unimp
    315e:	4026                	.2byte	0x4026
    3160:	0000                	unimp
    3162:	0000                	unimp
    3164:	0000                	unimp
    3166:	402c                	lw	a1,64(s0)
    3168:	0000                	unimp
    316a:	0000                	unimp
    316c:	0000                	unimp
    316e:	4036                	.2byte	0x4036
    3170:	0000                	unimp
    3172:	0000                	unimp
    3174:	0000                	unimp
    3176:	3ff0                	fld	fa2,248(a5)
    3178:	0000                	unimp
    317a:	0000                	unimp
    317c:	0000                	unimp
    317e:	4026                	.2byte	0x4026
    3180:	0000                	unimp
    3182:	0000                	unimp
    3184:	0000                	unimp
    3186:	401c                	lw	a5,0(s0)
    3188:	0000                	unimp
    318a:	0000                	unimp
    318c:	0000                	unimp
    318e:	4026                	.2byte	0x4026
    3190:	0000                	unimp
    3192:	0000                	unimp
    3194:	0000                	unimp
    3196:	4034                	lw	a3,64(s0)
    3198:	0000                	unimp
    319a:	0000                	unimp
    319c:	0000                	unimp
    319e:	403e                	.2byte	0x403e
    31a0:	0000                	unimp
    31a2:	0000                	unimp
    31a4:	0000                	unimp
    31a6:	402a                	.2byte	0x402a
    31a8:	0000                	unimp
    31aa:	0000                	unimp
    31ac:	0000                	unimp
    31ae:	00004037          	lui	zero,0x4
    31b2:	0000                	unimp
    31b4:	0000                	unimp
    31b6:	00004037          	lui	zero,0x4
    31ba:	0000                	unimp
    31bc:	0000                	unimp
    31be:	4030                	lw	a2,64(s0)
    31c0:	0000                	unimp
    31c2:	0000                	unimp
    31c4:	0000                	unimp
    31c6:	4022                	.2byte	0x4022
    31c8:	0000                	unimp
    31ca:	0000                	unimp
    31cc:	0000                	unimp
    31ce:	4034                	lw	a3,64(s0)
    31d0:	0000                	unimp
    31d2:	0000                	unimp
    31d4:	0000                	unimp
    31d6:	403d                	c.li	zero,15
    31d8:	0000                	unimp
    31da:	0000                	unimp
    31dc:	0000                	unimp
    31de:	4034                	lw	a3,64(s0)
    31e0:	0000                	unimp
    31e2:	0000                	unimp
    31e4:	0000                	unimp
    31e6:	4035                	c.li	zero,13
    31e8:	0000                	unimp
    31ea:	0000                	unimp
    31ec:	0000                	unimp
    31ee:	0000403b          	.4byte	0x403b
    31f2:	0000                	unimp
    31f4:	0000                	unimp
    31f6:	402a                	.2byte	0x402a
    31f8:	0000                	unimp
    31fa:	0000                	unimp
    31fc:	0000                	unimp
    31fe:	403a                	.2byte	0x403a
    3200:	0000                	unimp
    3202:	0000                	unimp
    3204:	0000                	unimp
    3206:	4020                	lw	s0,64(s0)
    3208:	0000                	unimp
    320a:	0000                	unimp
    320c:	0000                	unimp
    320e:	4031                	c.li	zero,12
    3210:	0000                	unimp
    3212:	0000                	unimp
    3214:	0000                	unimp
    3216:	00004033          	xor	zero,zero,zero
    321a:	0000                	unimp
    321c:	0000                	unimp
    321e:	4022                	.2byte	0x4022
    3220:	0000                	unimp
    3222:	0000                	unimp
    3224:	0000                	unimp
    3226:	4024                	lw	s1,64(s0)
    3228:	0000                	unimp
    322a:	0000                	unimp
    322c:	0000                	unimp
    322e:	4018                	lw	a4,0(s0)
    3230:	0000                	unimp
    3232:	0000                	unimp
    3234:	0000                	unimp
    3236:	4018                	lw	a4,0(s0)
    3238:	0000                	unimp
    323a:	0000                	unimp
    323c:	0000                	unimp
    323e:	4032                	.2byte	0x4032
    3240:	0000                	unimp
    3242:	0000                	unimp
    3244:	0000                	unimp
    3246:	402a                	.2byte	0x402a
    3248:	0000                	unimp
    324a:	0000                	unimp
    324c:	0000                	unimp
    324e:	4031                	c.li	zero,12
    3250:	0000                	unimp
    3252:	0000                	unimp
    3254:	0000                	unimp
    3256:	403c                	lw	a5,64(s0)
    3258:	0000                	unimp
    325a:	0000                	unimp
    325c:	0000                	unimp
    325e:	4031                	c.li	zero,12
    3260:	0000                	unimp
    3262:	0000                	unimp
    3264:	0000                	unimp
    3266:	4035                	c.li	zero,13
    3268:	0000                	unimp
    326a:	0000                	unimp
    326c:	0000                	unimp
    326e:	4036                	.2byte	0x4036
    3270:	0000                	unimp
    3272:	0000                	unimp
    3274:	0000                	unimp
    3276:	4014                	lw	a3,0(s0)
    3278:	0000                	unimp
    327a:	0000                	unimp
    327c:	0000                	unimp
    327e:	402e                	.2byte	0x402e
    3280:	0000                	unimp
    3282:	0000                	unimp
    3284:	0000                	unimp
    3286:	4031                	c.li	zero,12
    3288:	0000                	unimp
    328a:	0000                	unimp
    328c:	0000                	unimp
    328e:	402c                	lw	a1,64(s0)
    3290:	0000                	unimp
    3292:	0000                	unimp
    3294:	0000                	unimp
    3296:	4022                	.2byte	0x4022
    3298:	0000                	unimp
    329a:	0000                	unimp
    329c:	0000                	unimp
    329e:	402c                	lw	a1,64(s0)
    32a0:	0000                	unimp
    32a2:	0000                	unimp
    32a4:	0000                	unimp
    32a6:	4032                	.2byte	0x4032
    32a8:	0000                	unimp
    32aa:	0000                	unimp
    32ac:	0000                	unimp
    32ae:	4031                	c.li	zero,12
    32b0:	0000                	unimp
    32b2:	0000                	unimp
    32b4:	0000                	unimp
    32b6:	4020                	lw	s0,64(s0)
    32b8:	0000                	unimp
    32ba:	0000                	unimp
    32bc:	0000                	unimp
    32be:	4031                	c.li	zero,12
    32c0:	0000                	unimp
    32c2:	0000                	unimp
    32c4:	0000                	unimp
    32c6:	00004037          	lui	zero,0x4
    32ca:	0000                	unimp
    32cc:	0000                	unimp
    32ce:	4034                	lw	a3,64(s0)
    32d0:	0000                	unimp
    32d2:	0000                	unimp
    32d4:	0000                	unimp
    32d6:	4000                	lw	s0,0(s0)
    32d8:	0000                	unimp
    32da:	0000                	unimp
    32dc:	0000                	unimp
    32de:	0000                	unimp
    32e0:	0000                	unimp
    32e2:	0000                	unimp
    32e4:	0000                	unimp
    32e6:	0000403b          	.4byte	0x403b
    32ea:	0000                	unimp
    32ec:	0000                	unimp
    32ee:	4030                	lw	a2,64(s0)
    32f0:	0000                	unimp
    32f2:	0000                	unimp
    32f4:	0000                	unimp
    32f6:	402e                	.2byte	0x402e
    32f8:	0000                	unimp
    32fa:	0000                	unimp
    32fc:	0000                	unimp
    32fe:	4035                	c.li	zero,13
    3300:	0000                	unimp
    3302:	0000                	unimp
    3304:	0000                	unimp
    3306:	4034                	lw	a3,64(s0)
    3308:	0000                	unimp
    330a:	0000                	unimp
    330c:	0000                	unimp
    330e:	4039                	c.li	zero,14
    3310:	0000                	unimp
    3312:	0000                	unimp
    3314:	0000                	unimp
    3316:	4031                	c.li	zero,12
    3318:	0000                	unimp
    331a:	0000                	unimp
    331c:	0000                	unimp
    331e:	4028                	lw	a0,64(s0)
    3320:	0000                	unimp
    3322:	0000                	unimp
    3324:	0000                	unimp
    3326:	4036                	.2byte	0x4036
    3328:	0000                	unimp
    332a:	0000                	unimp
    332c:	0000                	unimp
    332e:	4038                	lw	a4,64(s0)
    3330:	0000                	unimp
    3332:	0000                	unimp
    3334:	0000                	unimp
    3336:	4035                	c.li	zero,13
    3338:	0000                	unimp
    333a:	0000                	unimp
    333c:	0000                	unimp
    333e:	4020                	lw	s0,64(s0)
    3340:	0000                	unimp
    3342:	0000                	unimp
    3344:	0000                	unimp
    3346:	402c                	lw	a1,64(s0)
    3348:	0000                	unimp
    334a:	0000                	unimp
    334c:	0000                	unimp
    334e:	403c                	lw	a5,64(s0)
    3350:	0000                	unimp
    3352:	0000                	unimp
    3354:	0000                	unimp
    3356:	403d                	c.li	zero,15
    3358:	0000                	unimp
    335a:	0000                	unimp
    335c:	0000                	unimp
    335e:	00004033          	xor	zero,zero,zero
    3362:	0000                	unimp
    3364:	0000                	unimp
    3366:	4020                	lw	s0,64(s0)
    3368:	0000                	unimp
    336a:	0000                	unimp
    336c:	0000                	unimp
    336e:	4038                	lw	a4,64(s0)
    3370:	0000                	unimp
    3372:	0000                	unimp
    3374:	0000                	unimp
    3376:	4010                	lw	a2,0(s0)
    3378:	0000                	unimp
    337a:	0000                	unimp
    337c:	0000                	unimp
    337e:	4026                	.2byte	0x4026
    3380:	0000                	unimp
    3382:	0000                	unimp
    3384:	0000                	unimp
    3386:	402a                	.2byte	0x402a
    3388:	0000                	unimp
    338a:	0000                	unimp
    338c:	0000                	unimp
    338e:	4000                	lw	s0,0(s0)
    3390:	0000                	unimp
    3392:	0000                	unimp
    3394:	0000                	unimp
    3396:	00004037          	lui	zero,0x4
    339a:	0000                	unimp
    339c:	0000                	unimp
    339e:	403d                	c.li	zero,15
    33a0:	0000                	unimp
    33a2:	0000                	unimp
    33a4:	0000                	unimp
    33a6:	402a                	.2byte	0x402a
    33a8:	0000                	unimp
    33aa:	0000                	unimp
    33ac:	0000                	unimp
    33ae:	4041                	c.li	zero,16
    33b0:	0000                	unimp
    33b2:	0000                	unimp
    33b4:	0000                	unimp
    33b6:	0000403b          	.4byte	0x403b
    33ba:	0000                	unimp
    33bc:	0000                	unimp
    33be:	4036                	.2byte	0x4036
    33c0:	0000                	unimp
    33c2:	0000                	unimp
    33c4:	0000                	unimp
    33c6:	4031                	c.li	zero,12
    33c8:	0000                	unimp
    33ca:	0000                	unimp
    33cc:	0000                	unimp
    33ce:	4008                	lw	a0,0(s0)
    33d0:	0000                	unimp
    33d2:	0000                	unimp
    33d4:	0000                	unimp
    33d6:	4035                	c.li	zero,13
    33d8:	0000                	unimp
    33da:	0000                	unimp
    33dc:	0000                	unimp
    33de:	402e                	.2byte	0x402e
    33e0:	0000                	unimp
    33e2:	0000                	unimp
    33e4:	0000                	unimp
    33e6:	402a                	.2byte	0x402a
    33e8:	0000                	unimp
    33ea:	0000                	unimp
    33ec:	0000                	unimp
    33ee:	4039                	c.li	zero,14
    33f0:	0000                	unimp
    33f2:	0000                	unimp
    33f4:	0000                	unimp
    33f6:	4032                	.2byte	0x4032
    33f8:	0000                	unimp
    33fa:	0000                	unimp
    33fc:	0000                	unimp
    33fe:	4034                	lw	a3,64(s0)
    3400:	0000                	unimp
    3402:	0000                	unimp
    3404:	0000                	unimp
    3406:	4028                	lw	a0,64(s0)
    3408:	0000                	unimp
    340a:	0000                	unimp
    340c:	0000                	unimp
    340e:	4024                	lw	s1,64(s0)
    3410:	0000                	unimp
    3412:	0000                	unimp
    3414:	0000                	unimp
    3416:	0000403b          	.4byte	0x403b
    341a:	0000                	unimp
    341c:	0000                	unimp
    341e:	403c                	lw	a5,64(s0)
    3420:	0000                	unimp
    3422:	0000                	unimp
    3424:	0000                	unimp
    3426:	4036                	.2byte	0x4036
    3428:	0000                	unimp
    342a:	0000                	unimp
    342c:	0000                	unimp
    342e:	4036                	.2byte	0x4036
    3430:	0000                	unimp
    3432:	0000                	unimp
    3434:	0000                	unimp
    3436:	402c                	lw	a1,64(s0)
    3438:	0000                	unimp
    343a:	0000                	unimp
    343c:	0000                	unimp
    343e:	4018                	lw	a4,0(s0)
    3440:	0000                	unimp
    3442:	0000                	unimp
    3444:	0000                	unimp
    3446:	4039                	c.li	zero,14
    3448:	0000                	unimp
    344a:	0000                	unimp
    344c:	0000                	unimp
    344e:	403d                	c.li	zero,15
    3450:	0000                	unimp
    3452:	0000                	unimp
    3454:	0000                	unimp
    3456:	402e                	.2byte	0x402e
    3458:	0000                	unimp
    345a:	0000                	unimp
    345c:	0000                	unimp
    345e:	4028                	lw	a0,64(s0)
    3460:	0000                	unimp
    3462:	0000                	unimp
    3464:	0000                	unimp
    3466:	403c                	lw	a5,64(s0)
    3468:	0000                	unimp
    346a:	0000                	unimp
    346c:	0000                	unimp
    346e:	4026                	.2byte	0x4026
    3470:	0000                	unimp
    3472:	0000                	unimp
    3474:	0000                	unimp
    3476:	402e                	.2byte	0x402e
    3478:	0000                	unimp
    347a:	0000                	unimp
    347c:	0000                	unimp
    347e:	4014                	lw	a3,0(s0)
    3480:	0000                	unimp
    3482:	0000                	unimp
    3484:	0000                	unimp
    3486:	4010                	lw	a2,0(s0)
    3488:	0000                	unimp
    348a:	0000                	unimp
    348c:	0000                	unimp
    348e:	4034                	lw	a3,64(s0)
    3490:	0000                	unimp
    3492:	0000                	unimp
    3494:	0000                	unimp
    3496:	4024                	lw	s1,64(s0)
    3498:	0000                	unimp
    349a:	0000                	unimp
    349c:	0000                	unimp
    349e:	4010                	lw	a2,0(s0)
    34a0:	0000                	unimp
    34a2:	0000                	unimp
    34a4:	0000                	unimp
    34a6:	4036                	.2byte	0x4036
    34a8:	0000                	unimp
    34aa:	0000                	unimp
    34ac:	0000                	unimp
    34ae:	4008                	lw	a0,0(s0)
    34b0:	0000                	unimp
    34b2:	0000                	unimp
    34b4:	0000                	unimp
    34b6:	0000403b          	.4byte	0x403b
    34ba:	0000                	unimp
    34bc:	0000                	unimp
    34be:	0000403f 00000000 	.8byte	0x403f
    34c6:	403d                	c.li	zero,15
    34c8:	0000                	unimp
    34ca:	0000                	unimp
    34cc:	0000                	unimp
    34ce:	4034                	lw	a3,64(s0)
    34d0:	0000                	unimp
    34d2:	0000                	unimp
    34d4:	0000                	unimp
    34d6:	401c                	lw	a5,0(s0)
    34d8:	0000                	unimp
    34da:	0000                	unimp
    34dc:	0000                	unimp
    34de:	4008                	lw	a0,0(s0)
    34e0:	0000                	unimp
    34e2:	0000                	unimp
    34e4:	0000                	unimp
    34e6:	401c                	lw	a5,0(s0)
    34e8:	0000                	unimp
    34ea:	0000                	unimp
    34ec:	0000                	unimp
    34ee:	403c                	lw	a5,64(s0)
    34f0:	0000                	unimp
    34f2:	0000                	unimp
    34f4:	0000                	unimp
    34f6:	4031                	c.li	zero,12
    34f8:	0000                	unimp
    34fa:	0000                	unimp
    34fc:	0000                	unimp
    34fe:	402c                	lw	a1,64(s0)
    3500:	0000                	unimp
    3502:	0000                	unimp
    3504:	0000                	unimp
    3506:	4031                	c.li	zero,12
    3508:	0000                	unimp
    350a:	0000                	unimp
    350c:	0000                	unimp
    350e:	4024                	lw	s1,64(s0)
    3510:	0000                	unimp
    3512:	0000                	unimp
    3514:	0000                	unimp
    3516:	4020                	lw	s0,64(s0)
    3518:	0000                	unimp
    351a:	0000                	unimp
    351c:	0000                	unimp
    351e:	401c                	lw	a5,0(s0)
    3520:	0000                	unimp
    3522:	0000                	unimp
    3524:	0000                	unimp
    3526:	4028                	lw	a0,64(s0)
    3528:	0000                	unimp
    352a:	0000                	unimp
    352c:	0000                	unimp
    352e:	4035                	c.li	zero,13
    3530:	0000                	unimp
    3532:	0000                	unimp
    3534:	0000                	unimp
    3536:	4041                	c.li	zero,16
    3538:	0000                	unimp
    353a:	0000                	unimp
    353c:	0000                	unimp
    353e:	4034                	lw	a3,64(s0)
    3540:	0000                	unimp
    3542:	0000                	unimp
    3544:	0000                	unimp
    3546:	4022                	.2byte	0x4022
    3548:	0000                	unimp
    354a:	0000                	unimp
    354c:	0000                	unimp
    354e:	4036                	.2byte	0x4036
    3550:	0000                	unimp
    3552:	0000                	unimp
    3554:	0000                	unimp
    3556:	00004033          	xor	zero,zero,zero
    355a:	0000                	unimp
    355c:	0000                	unimp
    355e:	4035                	c.li	zero,13
    3560:	0000                	unimp
    3562:	0000                	unimp
    3564:	0000                	unimp
    3566:	4039                	c.li	zero,14
    3568:	0000                	unimp
    356a:	0000                	unimp
    356c:	0000                	unimp
    356e:	4038                	lw	a4,64(s0)
    3570:	0000                	unimp
    3572:	0000                	unimp
    3574:	0000                	unimp
    3576:	4032                	.2byte	0x4032
    3578:	0000                	unimp
    357a:	0000                	unimp
    357c:	0000                	unimp
    357e:	402c                	lw	a1,64(s0)
    3580:	0000                	unimp
    3582:	0000                	unimp
    3584:	0000                	unimp
    3586:	00004037          	lui	zero,0x4
    358a:	0000                	unimp
    358c:	0000                	unimp
    358e:	00004037          	lui	zero,0x4
    3592:	0000                	unimp
    3594:	0000                	unimp
    3596:	4022                	.2byte	0x4022
    3598:	0000                	unimp
    359a:	0000                	unimp
    359c:	0000                	unimp
    359e:	402e                	.2byte	0x402e
    35a0:	0000                	unimp
    35a2:	0000                	unimp
    35a4:	0000                	unimp
    35a6:	00004033          	xor	zero,zero,zero
    35aa:	0000                	unimp
    35ac:	0000                	unimp
    35ae:	401c                	lw	a5,0(s0)
    35b0:	0000                	unimp
    35b2:	0000                	unimp
    35b4:	0000                	unimp
    35b6:	4034                	lw	a3,64(s0)
    35b8:	0000                	unimp
    35ba:	0000                	unimp
    35bc:	0000                	unimp
    35be:	4040                	lw	s0,4(s0)
    35c0:	0000                	unimp
    35c2:	0000                	unimp
    35c4:	0000                	unimp
    35c6:	4034                	lw	a3,64(s0)
    35c8:	0000                	unimp
    35ca:	0000                	unimp
    35cc:	0000                	unimp
    35ce:	0000403b          	.4byte	0x403b
    35d2:	0000                	unimp
    35d4:	0000                	unimp
    35d6:	0000403b          	.4byte	0x403b
    35da:	0000                	unimp
    35dc:	0000                	unimp
    35de:	403e                	.2byte	0x403e
    35e0:	0000                	unimp
    35e2:	0000                	unimp
    35e4:	0000                	unimp
    35e6:	0000403b          	.4byte	0x403b
    35ea:	0000                	unimp
    35ec:	0000                	unimp
    35ee:	4040                	lw	s0,4(s0)
    35f0:	0000                	unimp
    35f2:	0000                	unimp
    35f4:	0000                	unimp
    35f6:	4020                	lw	s0,64(s0)
    35f8:	0000                	unimp
    35fa:	0000                	unimp
    35fc:	0000                	unimp
    35fe:	00004033          	xor	zero,zero,zero
    3602:	0000                	unimp
    3604:	0000                	unimp
    3606:	4035                	c.li	zero,13
    3608:	0000                	unimp
    360a:	0000                	unimp
    360c:	0000                	unimp
    360e:	403c                	lw	a5,64(s0)
    3610:	0000                	unimp
    3612:	0000                	unimp
    3614:	0000                	unimp
    3616:	4030                	lw	a2,64(s0)
    3618:	0000                	unimp
    361a:	0000                	unimp
    361c:	0000                	unimp
    361e:	4039                	c.li	zero,14
    3620:	0000                	unimp
    3622:	0000                	unimp
    3624:	0000                	unimp
    3626:	402a                	.2byte	0x402a
    3628:	0000                	unimp
    362a:	0000                	unimp
    362c:	0000                	unimp
    362e:	4036                	.2byte	0x4036
    3630:	0000                	unimp
    3632:	0000                	unimp
    3634:	0000                	unimp
    3636:	4038                	lw	a4,64(s0)
    3638:	0000                	unimp
    363a:	0000                	unimp
    363c:	0000                	unimp
    363e:	402a                	.2byte	0x402a
    3640:	0000                	unimp
    3642:	0000                	unimp
    3644:	0000                	unimp
    3646:	4035                	c.li	zero,13
    3648:	0000                	unimp
    364a:	0000                	unimp
    364c:	0000                	unimp
    364e:	4030                	lw	a2,64(s0)
    3650:	0000                	unimp
    3652:	0000                	unimp
    3654:	0000                	unimp
    3656:	4024                	lw	s1,64(s0)
    3658:	0000                	unimp
    365a:	0000                	unimp
    365c:	0000                	unimp
    365e:	00004037          	lui	zero,0x4
    3662:	0000                	unimp
    3664:	0000                	unimp
    3666:	4035                	c.li	zero,13
    3668:	0000                	unimp
    366a:	0000                	unimp
    366c:	0000                	unimp
    366e:	4026                	.2byte	0x4026
    3670:	0000                	unimp
    3672:	0000                	unimp
    3674:	0000                	unimp
    3676:	4039                	c.li	zero,14
    3678:	0000                	unimp
    367a:	0000                	unimp
    367c:	0000                	unimp
    367e:	00004033          	xor	zero,zero,zero
    3682:	0000                	unimp
    3684:	0000                	unimp
    3686:	4035                	c.li	zero,13
    3688:	0000                	unimp
    368a:	0000                	unimp
    368c:	0000                	unimp
    368e:	402c                	lw	a1,64(s0)
    3690:	0000                	unimp
    3692:	0000                	unimp
    3694:	0000                	unimp
    3696:	402c                	lw	a1,64(s0)
    3698:	0000                	unimp
    369a:	0000                	unimp
    369c:	0000                	unimp
    369e:	403a                	.2byte	0x403a
    36a0:	0000                	unimp
    36a2:	0000                	unimp
    36a4:	0000                	unimp
    36a6:	403e                	.2byte	0x403e
    36a8:	0000                	unimp
    36aa:	0000                	unimp
    36ac:	0000                	unimp
    36ae:	4028                	lw	a0,64(s0)
    36b0:	0000                	unimp
    36b2:	0000                	unimp
    36b4:	0000                	unimp
    36b6:	4014                	lw	a3,0(s0)
    36b8:	0000                	unimp
    36ba:	0000                	unimp
    36bc:	0000                	unimp
    36be:	403a                	.2byte	0x403a
    36c0:	0000                	unimp
    36c2:	0000                	unimp
    36c4:	0000                	unimp
    36c6:	4036                	.2byte	0x4036
    36c8:	0000                	unimp
    36ca:	0000                	unimp
    36cc:	0000                	unimp
    36ce:	4026                	.2byte	0x4026
    36d0:	0000                	unimp
    36d2:	0000                	unimp
    36d4:	0000                	unimp
    36d6:	401c                	lw	a5,0(s0)
    36d8:	0000                	unimp
    36da:	0000                	unimp
    36dc:	0000                	unimp
    36de:	4030                	lw	a2,64(s0)
    36e0:	0000                	unimp
    36e2:	0000                	unimp
    36e4:	0000                	unimp
    36e6:	4028                	lw	a0,64(s0)
    36e8:	0000                	unimp
    36ea:	0000                	unimp
    36ec:	0000                	unimp
    36ee:	4036                	.2byte	0x4036
    36f0:	0000                	unimp
    36f2:	0000                	unimp
    36f4:	0000                	unimp
    36f6:	402c                	lw	a1,64(s0)
    36f8:	0000                	unimp
    36fa:	0000                	unimp
    36fc:	0000                	unimp
    36fe:	00004037          	lui	zero,0x4
    3702:	0000                	unimp
    3704:	0000                	unimp
    3706:	4035                	c.li	zero,13
    3708:	0000                	unimp
    370a:	0000                	unimp
    370c:	0000                	unimp
    370e:	403c                	lw	a5,64(s0)
    3710:	0000                	unimp
    3712:	0000                	unimp
    3714:	0000                	unimp
    3716:	0000403f 00000000 	.8byte	0x403f
    371e:	4034                	lw	a3,64(s0)
    3720:	0000                	unimp
    3722:	0000                	unimp
    3724:	0000                	unimp
    3726:	3ff0                	fld	fa2,248(a5)
    3728:	0000                	unimp
    372a:	0000                	unimp
    372c:	0000                	unimp
    372e:	00004037          	lui	zero,0x4
    3732:	0000                	unimp
    3734:	0000                	unimp
    3736:	403e                	.2byte	0x403e
    3738:	0000                	unimp
    373a:	0000                	unimp
    373c:	0000                	unimp
    373e:	4040                	lw	s0,4(s0)
    3740:	0000                	unimp
    3742:	0000                	unimp
    3744:	0000                	unimp
    3746:	4030                	lw	a2,64(s0)
    3748:	0000                	unimp
    374a:	0000                	unimp
    374c:	0000                	unimp
    374e:	402c                	lw	a1,64(s0)
    3750:	0000                	unimp
    3752:	0000                	unimp
    3754:	0000                	unimp
    3756:	4022                	.2byte	0x4022
    3758:	0000                	unimp
    375a:	0000                	unimp
    375c:	0000                	unimp
    375e:	00004037          	lui	zero,0x4
    3762:	0000                	unimp
    3764:	0000                	unimp
    3766:	4035                	c.li	zero,13
    3768:	0000                	unimp
    376a:	0000                	unimp
    376c:	0000                	unimp
    376e:	0000403f 00000000 	.8byte	0x403f
    3776:	4008                	lw	a0,0(s0)
    3778:	0000                	unimp
    377a:	0000                	unimp
    377c:	0000                	unimp
    377e:	00004037          	lui	zero,0x4
    3782:	0000                	unimp
    3784:	0000                	unimp
    3786:	4031                	c.li	zero,12
    3788:	0000                	unimp
    378a:	0000                	unimp
    378c:	0000                	unimp
    378e:	401c                	lw	a5,0(s0)
    3790:	0000                	unimp
    3792:	0000                	unimp
    3794:	0000                	unimp
    3796:	4036                	.2byte	0x4036
    3798:	0000                	unimp
    379a:	0000                	unimp
    379c:	0000                	unimp
    379e:	4018                	lw	a4,0(s0)
    37a0:	0000                	unimp
    37a2:	0000                	unimp
    37a4:	0000                	unimp
    37a6:	403e                	.2byte	0x403e
    37a8:	0000                	unimp
    37aa:	0000                	unimp
    37ac:	0000                	unimp
    37ae:	4010                	lw	a2,0(s0)
    37b0:	0000                	unimp
    37b2:	0000                	unimp
    37b4:	0000                	unimp
    37b6:	401c                	lw	a5,0(s0)
    37b8:	0000                	unimp
    37ba:	0000                	unimp
    37bc:	0000                	unimp
    37be:	4036                	.2byte	0x4036
    37c0:	0000                	unimp
    37c2:	0000                	unimp
    37c4:	0000                	unimp
    37c6:	4031                	c.li	zero,12
    37c8:	0000                	unimp
    37ca:	0000                	unimp
    37cc:	0000                	unimp
    37ce:	4031                	c.li	zero,12
    37d0:	0000                	unimp
    37d2:	0000                	unimp
    37d4:	0000                	unimp
    37d6:	00004033          	xor	zero,zero,zero
    37da:	0000                	unimp
    37dc:	0000                	unimp
    37de:	4032                	.2byte	0x4032
    37e0:	0000                	unimp
    37e2:	0000                	unimp
    37e4:	0000                	unimp
    37e6:	0000403f 00000000 	.8byte	0x403f
    37ee:	4026                	.2byte	0x4026
    37f0:	0000                	unimp
    37f2:	0000                	unimp
    37f4:	0000                	unimp
    37f6:	4032                	.2byte	0x4032
    37f8:	0000                	unimp
    37fa:	0000                	unimp
    37fc:	0000                	unimp
    37fe:	4026                	.2byte	0x4026
    3800:	0000                	unimp
    3802:	0000                	unimp
    3804:	0000                	unimp
    3806:	4036                	.2byte	0x4036
    3808:	0000                	unimp
    380a:	0000                	unimp
    380c:	0000                	unimp
    380e:	4028                	lw	a0,64(s0)
    3810:	0000                	unimp
    3812:	0000                	unimp
    3814:	0000                	unimp
    3816:	403d                	c.li	zero,15
    3818:	0000                	unimp
    381a:	0000                	unimp
    381c:	0000                	unimp
    381e:	402e                	.2byte	0x402e
    3820:	0000                	unimp
    3822:	0000                	unimp
    3824:	8000                	.2byte	0x8000
    3826:	4041                	c.li	zero,16
    3828:	0000                	unimp
    382a:	0000                	unimp
    382c:	0000                	unimp
    382e:	4026                	.2byte	0x4026
    3830:	0000                	unimp
    3832:	0000                	unimp
    3834:	0000                	unimp
    3836:	4028                	lw	a0,64(s0)
    3838:	0000                	unimp
    383a:	0000                	unimp
    383c:	0000                	unimp
    383e:	4031                	c.li	zero,12
    3840:	0000                	unimp
    3842:	0000                	unimp
    3844:	0000                	unimp
    3846:	4032                	.2byte	0x4032
    3848:	0000                	unimp
    384a:	0000                	unimp
    384c:	0000                	unimp
    384e:	403d                	c.li	zero,15
    3850:	0000                	unimp
    3852:	0000                	unimp
    3854:	0000                	unimp
    3856:	4031                	c.li	zero,12
    3858:	0000                	unimp
    385a:	0000                	unimp
    385c:	8000                	.2byte	0x8000
    385e:	4040                	lw	s0,4(s0)
    3860:	0000                	unimp
    3862:	0000                	unimp
    3864:	8000                	.2byte	0x8000
    3866:	4040                	lw	s0,4(s0)
    3868:	0000                	unimp
    386a:	0000                	unimp
    386c:	0000                	unimp
    386e:	402e                	.2byte	0x402e
    3870:	0000                	unimp
    3872:	0000                	unimp
    3874:	0000                	unimp
    3876:	0000403b          	.4byte	0x403b
    387a:	0000                	unimp
    387c:	0000                	unimp
    387e:	4034                	lw	a3,64(s0)
    3880:	0000                	unimp
    3882:	0000                	unimp
    3884:	0000                	unimp
    3886:	403d                	c.li	zero,15
    3888:	0000                	unimp
    388a:	0000                	unimp
    388c:	0000                	unimp
    388e:	402c                	lw	a1,64(s0)
    3890:	0000                	unimp
    3892:	0000                	unimp
    3894:	0000                	unimp
    3896:	00004037          	lui	zero,0x4
    389a:	0000                	unimp
    389c:	0000                	unimp
    389e:	402e                	.2byte	0x402e
    38a0:	0000                	unimp
    38a2:	0000                	unimp
    38a4:	0000                	unimp
    38a6:	4035                	c.li	zero,13
    38a8:	0000                	unimp
    38aa:	0000                	unimp
    38ac:	0000                	unimp
    38ae:	4032                	.2byte	0x4032
    38b0:	0000                	unimp
    38b2:	0000                	unimp
    38b4:	0000                	unimp
    38b6:	4034                	lw	a3,64(s0)
    38b8:	0000                	unimp
    38ba:	0000                	unimp
    38bc:	0000                	unimp
    38be:	4031                	c.li	zero,12
    38c0:	0000                	unimp
    38c2:	0000                	unimp
    38c4:	0000                	unimp
    38c6:	4038                	lw	a4,64(s0)
    38c8:	0000                	unimp
    38ca:	0000                	unimp
    38cc:	0000                	unimp
    38ce:	4014                	lw	a3,0(s0)
    38d0:	0000                	unimp
    38d2:	0000                	unimp
    38d4:	0000                	unimp
    38d6:	403d                	c.li	zero,15
    38d8:	0000                	unimp
    38da:	0000                	unimp
    38dc:	0000                	unimp
    38de:	402a                	.2byte	0x402a
    38e0:	0000                	unimp
    38e2:	0000                	unimp
    38e4:	0000                	unimp
    38e6:	00004033          	xor	zero,zero,zero
    38ea:	0000                	unimp
    38ec:	0000                	unimp
    38ee:	4032                	.2byte	0x4032
    38f0:	0000                	unimp
    38f2:	0000                	unimp
    38f4:	0000                	unimp
    38f6:	00004033          	xor	zero,zero,zero
    38fa:	0000                	unimp
    38fc:	0000                	unimp
    38fe:	402a                	.2byte	0x402a
    3900:	0000                	unimp
    3902:	0000                	unimp
    3904:	0000                	unimp
    3906:	4014                	lw	a3,0(s0)
    3908:	0000                	unimp
    390a:	0000                	unimp
    390c:	0000                	unimp
    390e:	4030                	lw	a2,64(s0)
    3910:	0000                	unimp
    3912:	0000                	unimp
    3914:	0000                	unimp
    3916:	4036                	.2byte	0x4036
    3918:	0000                	unimp
    391a:	0000                	unimp
    391c:	0000                	unimp
    391e:	402c                	lw	a1,64(s0)
    3920:	0000                	unimp
    3922:	0000                	unimp
    3924:	0000                	unimp
    3926:	4039                	c.li	zero,14
    3928:	0000                	unimp
    392a:	0000                	unimp
    392c:	0000                	unimp
    392e:	4035                	c.li	zero,13
    3930:	0000                	unimp
    3932:	0000                	unimp
    3934:	0000                	unimp
    3936:	401c                	lw	a5,0(s0)
    3938:	0000                	unimp
    393a:	0000                	unimp
    393c:	0000                	unimp
    393e:	4031                	c.li	zero,12
    3940:	0000                	unimp
    3942:	0000                	unimp
    3944:	0000                	unimp
    3946:	00004033          	xor	zero,zero,zero
    394a:	0000                	unimp
    394c:	0000                	unimp
    394e:	402e                	.2byte	0x402e
    3950:	0000                	unimp
    3952:	0000                	unimp
    3954:	0000                	unimp
    3956:	4014                	lw	a3,0(s0)
    3958:	0000                	unimp
    395a:	0000                	unimp
    395c:	0000                	unimp
    395e:	4030                	lw	a2,64(s0)
    3960:	0000                	unimp
    3962:	0000                	unimp
    3964:	8000                	.2byte	0x8000
    3966:	4040                	lw	s0,4(s0)
    3968:	0000                	unimp
    396a:	0000                	unimp
    396c:	0000                	unimp
    396e:	403c                	lw	a5,64(s0)
    3970:	0000                	unimp
    3972:	0000                	unimp
    3974:	0000                	unimp
    3976:	4024                	lw	s1,64(s0)
    3978:	0000                	unimp
    397a:	0000                	unimp
    397c:	0000                	unimp
    397e:	4038                	lw	a4,64(s0)
    3980:	0000                	unimp
    3982:	0000                	unimp
    3984:	0000                	unimp
    3986:	4038                	lw	a4,64(s0)
    3988:	0000                	unimp
    398a:	0000                	unimp
    398c:	0000                	unimp
    398e:	402a                	.2byte	0x402a
    3990:	0000                	unimp
    3992:	0000                	unimp
    3994:	0000                	unimp
    3996:	4026                	.2byte	0x4026
    3998:	0000                	unimp
    399a:	0000                	unimp
    399c:	0000                	unimp
    399e:	4031                	c.li	zero,12
    39a0:	0000                	unimp
    39a2:	0000                	unimp
    39a4:	0000                	unimp
    39a6:	4028                	lw	a0,64(s0)
    39a8:	0000                	unimp
    39aa:	0000                	unimp
    39ac:	0000                	unimp
    39ae:	403c                	lw	a5,64(s0)
    39b0:	0000                	unimp
    39b2:	0000                	unimp
    39b4:	0000                	unimp
    39b6:	4035                	c.li	zero,13
    39b8:	0000                	unimp
    39ba:	0000                	unimp
    39bc:	0000                	unimp
    39be:	4014                	lw	a3,0(s0)
    39c0:	0000                	unimp
    39c2:	0000                	unimp
    39c4:	0000                	unimp
    39c6:	00004033          	xor	zero,zero,zero
    39ca:	0000                	unimp
    39cc:	0000                	unimp
    39ce:	4039                	c.li	zero,14
    39d0:	0000                	unimp
    39d2:	0000                	unimp
    39d4:	0000                	unimp
    39d6:	402a                	.2byte	0x402a
    39d8:	0000                	unimp
    39da:	0000                	unimp
    39dc:	0000                	unimp
    39de:	4014                	lw	a3,0(s0)
    39e0:	0000                	unimp
    39e2:	0000                	unimp
    39e4:	0000                	unimp
    39e6:	4024                	lw	s1,64(s0)
    39e8:	0000                	unimp
    39ea:	0000                	unimp
    39ec:	0000                	unimp
    39ee:	4039                	c.li	zero,14
    39f0:	0000                	unimp
    39f2:	0000                	unimp
    39f4:	0000                	unimp
    39f6:	4035                	c.li	zero,13
    39f8:	0000                	unimp
    39fa:	0000                	unimp
    39fc:	0000                	unimp
    39fe:	4031                	c.li	zero,12
    3a00:	0000                	unimp
    3a02:	0000                	unimp
    3a04:	0000                	unimp
    3a06:	402a                	.2byte	0x402a
    3a08:	0000                	unimp
    3a0a:	0000                	unimp
    3a0c:	0000                	unimp
    3a0e:	4034                	lw	a3,64(s0)
    3a10:	0000                	unimp
    3a12:	0000                	unimp
    3a14:	0000                	unimp
    3a16:	4022                	.2byte	0x4022
    3a18:	0000                	unimp
    3a1a:	0000                	unimp
    3a1c:	0000                	unimp
    3a1e:	4030                	lw	a2,64(s0)
    3a20:	0000                	unimp
    3a22:	0000                	unimp
    3a24:	0000                	unimp
    3a26:	4038                	lw	a4,64(s0)
    3a28:	0000                	unimp
    3a2a:	0000                	unimp
    3a2c:	0000                	unimp
    3a2e:	4032                	.2byte	0x4032
    3a30:	0000                	unimp
    3a32:	0000                	unimp
    3a34:	0000                	unimp
    3a36:	4030                	lw	a2,64(s0)
    3a38:	0000                	unimp
    3a3a:	0000                	unimp
    3a3c:	0000                	unimp
    3a3e:	4036                	.2byte	0x4036
    3a40:	0000                	unimp
    3a42:	0000                	unimp
    3a44:	0000                	unimp
    3a46:	00004033          	xor	zero,zero,zero
    3a4a:	0000                	unimp
    3a4c:	0000                	unimp
    3a4e:	4024                	lw	s1,64(s0)
    3a50:	0000                	unimp
    3a52:	0000                	unimp
    3a54:	0000                	unimp
    3a56:	0000                	unimp
    3a58:	0000                	unimp
    3a5a:	0000                	unimp
    3a5c:	0000                	unimp
    3a5e:	402c                	lw	a1,64(s0)
    3a60:	0000                	unimp
    3a62:	0000                	unimp
    3a64:	0000                	unimp
    3a66:	4035                	c.li	zero,13
    3a68:	0000                	unimp
    3a6a:	0000                	unimp
    3a6c:	0000                	unimp
    3a6e:	4038                	lw	a4,64(s0)
    3a70:	0000                	unimp
    3a72:	0000                	unimp
    3a74:	0000                	unimp
    3a76:	00004037          	lui	zero,0x4
    3a7a:	0000                	unimp
    3a7c:	0000                	unimp
    3a7e:	4024                	lw	s1,64(s0)
    3a80:	0000                	unimp
    3a82:	0000                	unimp
    3a84:	8000                	.2byte	0x8000
    3a86:	4040                	lw	s0,4(s0)
    3a88:	0000                	unimp
    3a8a:	0000                	unimp
    3a8c:	0000                	unimp
    3a8e:	00004037          	lui	zero,0x4
    3a92:	0000                	unimp
    3a94:	0000                	unimp
    3a96:	4035                	c.li	zero,13
    3a98:	0000                	unimp
    3a9a:	0000                	unimp
    3a9c:	0000                	unimp
    3a9e:	4031                	c.li	zero,12
    3aa0:	0000                	unimp
    3aa2:	0000                	unimp
    3aa4:	0000                	unimp
    3aa6:	4031                	c.li	zero,12
    3aa8:	0000                	unimp
    3aaa:	0000                	unimp
    3aac:	0000                	unimp
    3aae:	00004033          	xor	zero,zero,zero
    3ab2:	0000                	unimp
    3ab4:	0000                	unimp
    3ab6:	403a                	.2byte	0x403a
    3ab8:	0000                	unimp
    3aba:	0000                	unimp
    3abc:	0000                	unimp
    3abe:	4036                	.2byte	0x4036
    3ac0:	0000                	unimp
    3ac2:	0000                	unimp
    3ac4:	0000                	unimp
    3ac6:	4028                	lw	a0,64(s0)
    3ac8:	0000                	unimp
    3aca:	0000                	unimp
    3acc:	0000                	unimp
    3ace:	0000403b          	.4byte	0x403b
    3ad2:	0000                	unimp
    3ad4:	0000                	unimp
    3ad6:	0000403f 00000000 	.8byte	0x403f
    3ade:	00004037          	lui	zero,0x4
    3ae2:	0000                	unimp
    3ae4:	0000                	unimp
    3ae6:	4018                	lw	a4,0(s0)
    3ae8:	0000                	unimp
    3aea:	0000                	unimp
    3aec:	0000                	unimp
    3aee:	4040                	lw	s0,4(s0)
    3af0:	0000                	unimp
    3af2:	0000                	unimp
    3af4:	0000                	unimp
    3af6:	4028                	lw	a0,64(s0)
    3af8:	0000                	unimp
    3afa:	0000                	unimp
    3afc:	0000                	unimp
    3afe:	4024                	lw	s1,64(s0)
    3b00:	0000                	unimp
    3b02:	0000                	unimp
    3b04:	0000                	unimp
    3b06:	4022                	.2byte	0x4022
    3b08:	0000                	unimp
    3b0a:	0000                	unimp
    3b0c:	0000                	unimp
    3b0e:	00004033          	xor	zero,zero,zero
    3b12:	0000                	unimp
    3b14:	0000                	unimp
    3b16:	4032                	.2byte	0x4032
    3b18:	0000                	unimp
    3b1a:	0000                	unimp
    3b1c:	0000                	unimp
    3b1e:	4032                	.2byte	0x4032
    3b20:	0000                	unimp
    3b22:	0000                	unimp
    3b24:	0000                	unimp
    3b26:	4034                	lw	a3,64(s0)
    3b28:	0000                	unimp
    3b2a:	0000                	unimp
    3b2c:	0000                	unimp
    3b2e:	4038                	lw	a4,64(s0)
    3b30:	0000                	unimp
    3b32:	0000                	unimp
    3b34:	0000                	unimp
    3b36:	4031                	c.li	zero,12
    3b38:	0000                	unimp
    3b3a:	0000                	unimp
    3b3c:	0000                	unimp
    3b3e:	401c                	lw	a5,0(s0)
    3b40:	0000                	unimp
    3b42:	0000                	unimp
    3b44:	0000                	unimp
    3b46:	4035                	c.li	zero,13
    3b48:	0000                	unimp
    3b4a:	0000                	unimp
    3b4c:	0000                	unimp
    3b4e:	0000403b          	.4byte	0x403b
    3b52:	0000                	unimp
    3b54:	0000                	unimp
    3b56:	402c                	lw	a1,64(s0)
    3b58:	0000                	unimp
    3b5a:	0000                	unimp
    3b5c:	0000                	unimp
    3b5e:	4034                	lw	a3,64(s0)
    3b60:	0000                	unimp
    3b62:	0000                	unimp
    3b64:	0000                	unimp
    3b66:	4014                	lw	a3,0(s0)
    3b68:	0000                	unimp
    3b6a:	0000                	unimp
    3b6c:	0000                	unimp
    3b6e:	00004033          	xor	zero,zero,zero
    3b72:	0000                	unimp
    3b74:	0000                	unimp
    3b76:	4026                	.2byte	0x4026
    3b78:	0000                	unimp
    3b7a:	0000                	unimp
    3b7c:	0000                	unimp
    3b7e:	4032                	.2byte	0x4032
    3b80:	0000                	unimp
    3b82:	0000                	unimp
    3b84:	0000                	unimp
    3b86:	4039                	c.li	zero,14
    3b88:	0000                	unimp
    3b8a:	0000                	unimp
    3b8c:	0000                	unimp
    3b8e:	3ff0                	fld	fa2,248(a5)
    3b90:	0000                	unimp
    3b92:	0000                	unimp
    3b94:	0000                	unimp
    3b96:	4028                	lw	a0,64(s0)
    3b98:	0000                	unimp
    3b9a:	0000                	unimp
    3b9c:	0000                	unimp
    3b9e:	4035                	c.li	zero,13
    3ba0:	0000                	unimp
    3ba2:	0000                	unimp
    3ba4:	0000                	unimp
    3ba6:	402a                	.2byte	0x402a
    3ba8:	0000                	unimp
    3baa:	0000                	unimp
    3bac:	0000                	unimp
    3bae:	403a                	.2byte	0x403a
    3bb0:	0000                	unimp
    3bb2:	0000                	unimp
    3bb4:	0000                	unimp
    3bb6:	4034                	lw	a3,64(s0)
    3bb8:	0000                	unimp
    3bba:	0000                	unimp
    3bbc:	0000                	unimp
    3bbe:	4008                	lw	a0,0(s0)
    3bc0:	0000                	unimp
    3bc2:	0000                	unimp
    3bc4:	0000                	unimp
    3bc6:	4031                	c.li	zero,12
    3bc8:	0000                	unimp
    3bca:	0000                	unimp
    3bcc:	0000                	unimp
    3bce:	403c                	lw	a5,64(s0)
    3bd0:	0000                	unimp
    3bd2:	0000                	unimp
    3bd4:	0000                	unimp
    3bd6:	4032                	.2byte	0x4032
    3bd8:	0000                	unimp
    3bda:	0000                	unimp
    3bdc:	0000                	unimp
    3bde:	4030                	lw	a2,64(s0)
    3be0:	0000                	unimp
    3be2:	0000                	unimp
    3be4:	0000                	unimp
    3be6:	402a                	.2byte	0x402a
    3be8:	0000                	unimp
    3bea:	0000                	unimp
    3bec:	0000                	unimp
    3bee:	4026                	.2byte	0x4026
    3bf0:	0000                	unimp
    3bf2:	0000                	unimp
    3bf4:	0000                	unimp
    3bf6:	4026                	.2byte	0x4026
    3bf8:	0000                	unimp
    3bfa:	0000                	unimp
    3bfc:	0000                	unimp
    3bfe:	4038                	lw	a4,64(s0)
    3c00:	0000                	unimp
    3c02:	0000                	unimp
    3c04:	0000                	unimp
    3c06:	4000                	lw	s0,0(s0)
    3c08:	0000                	unimp
    3c0a:	0000                	unimp
    3c0c:	0000                	unimp
    3c0e:	0000403b          	.4byte	0x403b
    3c12:	0000                	unimp
    3c14:	0000                	unimp
    3c16:	4032                	.2byte	0x4032
    3c18:	0000                	unimp
    3c1a:	0000                	unimp
    3c1c:	0000                	unimp
    3c1e:	00004033          	xor	zero,zero,zero
    3c22:	0000                	unimp
    3c24:	0000                	unimp
    3c26:	4032                	.2byte	0x4032
    3c28:	0000                	unimp
    3c2a:	0000                	unimp
    3c2c:	0000                	unimp
    3c2e:	4030                	lw	a2,64(s0)
    3c30:	0000                	unimp
    3c32:	0000                	unimp
    3c34:	0000                	unimp
    3c36:	4039                	c.li	zero,14
    3c38:	0000                	unimp
    3c3a:	0000                	unimp
    3c3c:	0000                	unimp
    3c3e:	402e                	.2byte	0x402e
    3c40:	0000                	unimp
    3c42:	0000                	unimp
    3c44:	0000                	unimp
    3c46:	4022                	.2byte	0x4022
    3c48:	0000                	unimp
    3c4a:	0000                	unimp
    3c4c:	0000                	unimp
    3c4e:	00004033          	xor	zero,zero,zero
    3c52:	0000                	unimp
    3c54:	0000                	unimp
    3c56:	403a                	.2byte	0x403a
    3c58:	0000                	unimp
    3c5a:	0000                	unimp
    3c5c:	0000                	unimp
    3c5e:	4038                	lw	a4,64(s0)
    3c60:	0000                	unimp
    3c62:	0000                	unimp
    3c64:	0000                	unimp
    3c66:	00004033          	xor	zero,zero,zero
    3c6a:	0000                	unimp
    3c6c:	0000                	unimp
    3c6e:	402a                	.2byte	0x402a
    3c70:	0000                	unimp
    3c72:	0000                	unimp
    3c74:	0000                	unimp
    3c76:	4030                	lw	a2,64(s0)
    3c78:	0000                	unimp
    3c7a:	0000                	unimp
    3c7c:	0000                	unimp
    3c7e:	4028                	lw	a0,64(s0)
    3c80:	0000                	unimp
    3c82:	0000                	unimp
    3c84:	0000                	unimp
    3c86:	4039                	c.li	zero,14
    3c88:	0000                	unimp
    3c8a:	0000                	unimp
    3c8c:	0000                	unimp
    3c8e:	4028                	lw	a0,64(s0)
    3c90:	0000                	unimp
    3c92:	0000                	unimp
    3c94:	0000                	unimp
    3c96:	4028                	lw	a0,64(s0)
    3c98:	0000                	unimp
    3c9a:	0000                	unimp
    3c9c:	0000                	unimp
    3c9e:	4038                	lw	a4,64(s0)
    3ca0:	0000                	unimp
    3ca2:	0000                	unimp
    3ca4:	0000                	unimp
    3ca6:	4034                	lw	a3,64(s0)
    3ca8:	0000                	unimp
    3caa:	0000                	unimp
    3cac:	0000                	unimp
    3cae:	4022                	.2byte	0x4022
    3cb0:	0000                	unimp
    3cb2:	0000                	unimp
    3cb4:	0000                	unimp
    3cb6:	4036                	.2byte	0x4036
    3cb8:	0000                	unimp
    3cba:	0000                	unimp
    3cbc:	0000                	unimp
    3cbe:	4018                	lw	a4,0(s0)
    3cc0:	0000                	unimp
    3cc2:	0000                	unimp
    3cc4:	0000                	unimp
    3cc6:	402a                	.2byte	0x402a
    3cc8:	0000                	unimp
    3cca:	0000                	unimp
    3ccc:	0000                	unimp
    3cce:	4026                	.2byte	0x4026
    3cd0:	0000                	unimp
    3cd2:	0000                	unimp
    3cd4:	0000                	unimp
    3cd6:	4026                	.2byte	0x4026
    3cd8:	0000                	unimp
    3cda:	0000                	unimp
    3cdc:	0000                	unimp
    3cde:	4034                	lw	a3,64(s0)
    3ce0:	0000                	unimp
    3ce2:	0000                	unimp
    3ce4:	0000                	unimp
    3ce6:	4026                	.2byte	0x4026
    3ce8:	0000                	unimp
    3cea:	0000                	unimp
    3cec:	0000                	unimp
    3cee:	4036                	.2byte	0x4036
    3cf0:	0000                	unimp
    3cf2:	0000                	unimp
    3cf4:	0000                	unimp
    3cf6:	4008                	lw	a0,0(s0)
    3cf8:	0000                	unimp
    3cfa:	0000                	unimp
    3cfc:	0000                	unimp
    3cfe:	4031                	c.li	zero,12
    3d00:	0000                	unimp
    3d02:	0000                	unimp
    3d04:	0000                	unimp
    3d06:	4039                	c.li	zero,14
    3d08:	0000                	unimp
    3d0a:	0000                	unimp
    3d0c:	0000                	unimp
    3d0e:	402c                	lw	a1,64(s0)
    3d10:	0000                	unimp
    3d12:	0000                	unimp
    3d14:	0000                	unimp
    3d16:	4039                	c.li	zero,14
    3d18:	0000                	unimp
    3d1a:	0000                	unimp
    3d1c:	0000                	unimp
    3d1e:	4030                	lw	a2,64(s0)
    3d20:	0000                	unimp
    3d22:	0000                	unimp
    3d24:	0000                	unimp
    3d26:	4008                	lw	a0,0(s0)
    3d28:	0000                	unimp
    3d2a:	0000                	unimp
    3d2c:	0000                	unimp
    3d2e:	4030                	lw	a2,64(s0)
    3d30:	0000                	unimp
    3d32:	0000                	unimp
    3d34:	0000                	unimp
    3d36:	00004037          	lui	zero,0x4
    3d3a:	0000                	unimp
    3d3c:	0000                	unimp
    3d3e:	4038                	lw	a4,64(s0)
    3d40:	0000                	unimp
    3d42:	0000                	unimp
    3d44:	0000                	unimp
    3d46:	4038                	lw	a4,64(s0)
    3d48:	0000                	unimp
    3d4a:	0000                	unimp
    3d4c:	0000                	unimp
    3d4e:	403d                	c.li	zero,15
    3d50:	0000                	unimp
    3d52:	0000                	unimp
    3d54:	0000                	unimp
    3d56:	4038                	lw	a4,64(s0)
    3d58:	0000                	unimp
    3d5a:	0000                	unimp
    3d5c:	0000                	unimp
    3d5e:	4018                	lw	a4,0(s0)
    3d60:	0000                	unimp
    3d62:	0000                	unimp
    3d64:	0000                	unimp
    3d66:	4028                	lw	a0,64(s0)
    3d68:	0000                	unimp
    3d6a:	0000                	unimp
    3d6c:	0000                	unimp
    3d6e:	402c                	lw	a1,64(s0)
    3d70:	0000                	unimp
    3d72:	0000                	unimp
    3d74:	0000                	unimp
    3d76:	00004037          	lui	zero,0x4
    3d7a:	0000                	unimp
    3d7c:	0000                	unimp
    3d7e:	403d                	c.li	zero,15
    3d80:	0000                	unimp
    3d82:	0000                	unimp
    3d84:	0000                	unimp
    3d86:	00004037          	lui	zero,0x4
    3d8a:	0000                	unimp
    3d8c:	0000                	unimp
    3d8e:	403a                	.2byte	0x403a
    3d90:	0000                	unimp
    3d92:	0000                	unimp
    3d94:	0000                	unimp
    3d96:	402c                	lw	a1,64(s0)
    3d98:	0000                	unimp
    3d9a:	0000                	unimp
    3d9c:	8000                	.2byte	0x8000
    3d9e:	4041                	c.li	zero,16
    3da0:	0000                	unimp
    3da2:	0000                	unimp
    3da4:	0000                	unimp
    3da6:	4031                	c.li	zero,12
    3da8:	0000                	unimp
    3daa:	0000                	unimp
    3dac:	0000                	unimp
    3dae:	4034                	lw	a3,64(s0)
    3db0:	0000                	unimp
    3db2:	0000                	unimp
    3db4:	0000                	unimp
    3db6:	4028                	lw	a0,64(s0)
    3db8:	0000                	unimp
    3dba:	0000                	unimp
    3dbc:	0000                	unimp
    3dbe:	4039                	c.li	zero,14
    3dc0:	0000                	unimp
    3dc2:	0000                	unimp
    3dc4:	0000                	unimp
    3dc6:	4000                	lw	s0,0(s0)
    3dc8:	0000                	unimp
    3dca:	0000                	unimp
    3dcc:	0000                	unimp
    3dce:	403d                	c.li	zero,15
    3dd0:	0000                	unimp
    3dd2:	0000                	unimp
    3dd4:	0000                	unimp
    3dd6:	4030                	lw	a2,64(s0)
    3dd8:	0000                	unimp
    3dda:	0000                	unimp
    3ddc:	0000                	unimp
    3dde:	4008                	lw	a0,0(s0)
    3de0:	0000                	unimp
    3de2:	0000                	unimp
    3de4:	0000                	unimp
    3de6:	4031                	c.li	zero,12
    3de8:	0000                	unimp
    3dea:	0000                	unimp
    3dec:	0000                	unimp
    3dee:	4040                	lw	s0,4(s0)
    3df0:	0000                	unimp
    3df2:	0000                	unimp
    3df4:	0000                	unimp
    3df6:	403e                	.2byte	0x403e
    3df8:	0000                	unimp
    3dfa:	0000                	unimp
    3dfc:	0000                	unimp
    3dfe:	4014                	lw	a3,0(s0)
    3e00:	0000                	unimp
    3e02:	0000                	unimp
    3e04:	0000                	unimp
    3e06:	0000403f 00000000 	.8byte	0x403f
    3e0e:	4039                	c.li	zero,14
    3e10:	0000                	unimp
    3e12:	0000                	unimp
    3e14:	0000                	unimp
    3e16:	4038                	lw	a4,64(s0)
    3e18:	0000                	unimp
    3e1a:	0000                	unimp
    3e1c:	0000                	unimp
    3e1e:	403d                	c.li	zero,15
    3e20:	0000                	unimp
    3e22:	0000                	unimp
    3e24:	0000                	unimp
    3e26:	4036                	.2byte	0x4036
    3e28:	0000                	unimp
    3e2a:	0000                	unimp
    3e2c:	0000                	unimp
    3e2e:	403a                	.2byte	0x403a
    3e30:	0000                	unimp
    3e32:	0000                	unimp
    3e34:	0000                	unimp
    3e36:	401c                	lw	a5,0(s0)
    3e38:	0000                	unimp
    3e3a:	0000                	unimp
    3e3c:	0000                	unimp
    3e3e:	402c                	lw	a1,64(s0)
    3e40:	0000                	unimp
    3e42:	0000                	unimp
    3e44:	0000                	unimp
    3e46:	4018                	lw	a4,0(s0)
    3e48:	0000                	unimp
    3e4a:	0000                	unimp
    3e4c:	0000                	unimp
    3e4e:	4026                	.2byte	0x4026
    3e50:	0000                	unimp
    3e52:	0000                	unimp
    3e54:	0000                	unimp
    3e56:	4040                	lw	s0,4(s0)
    3e58:	0000                	unimp
    3e5a:	0000                	unimp
    3e5c:	0000                	unimp
    3e5e:	3ff0                	fld	fa2,248(a5)
    3e60:	0000                	unimp
    3e62:	0000                	unimp
    3e64:	0000                	unimp
    3e66:	4032                	.2byte	0x4032
    3e68:	0000                	unimp
    3e6a:	0000                	unimp
    3e6c:	0000                	unimp
    3e6e:	4028                	lw	a0,64(s0)
    3e70:	0000                	unimp
    3e72:	0000                	unimp
    3e74:	0000                	unimp
    3e76:	4034                	lw	a3,64(s0)
    3e78:	0000                	unimp
    3e7a:	0000                	unimp
    3e7c:	0000                	unimp
    3e7e:	4030                	lw	a2,64(s0)
    3e80:	0000                	unimp
    3e82:	0000                	unimp
    3e84:	0000                	unimp
    3e86:	402e                	.2byte	0x402e
    3e88:	0000                	unimp
    3e8a:	0000                	unimp
    3e8c:	0000                	unimp
    3e8e:	4034                	lw	a3,64(s0)
    3e90:	0000                	unimp
    3e92:	0000                	unimp
    3e94:	0000                	unimp
    3e96:	00004033          	xor	zero,zero,zero
    3e9a:	0000                	unimp
    3e9c:	0000                	unimp
    3e9e:	403e                	.2byte	0x403e
    3ea0:	0000                	unimp
    3ea2:	0000                	unimp
    3ea4:	0000                	unimp
    3ea6:	00004037          	lui	zero,0x4
    3eaa:	0000                	unimp
    3eac:	0000                	unimp
    3eae:	4026                	.2byte	0x4026
    3eb0:	0000                	unimp
    3eb2:	0000                	unimp
    3eb4:	0000                	unimp
    3eb6:	4028                	lw	a0,64(s0)
    3eb8:	0000                	unimp
    3eba:	0000                	unimp
    3ebc:	0000                	unimp
    3ebe:	4038                	lw	a4,64(s0)
    3ec0:	0000                	unimp
    3ec2:	0000                	unimp
    3ec4:	0000                	unimp
    3ec6:	402a                	.2byte	0x402a
    3ec8:	0000                	unimp
    3eca:	0000                	unimp
    3ecc:	0000                	unimp
    3ece:	0000403b          	.4byte	0x403b
    3ed2:	0000                	unimp
    3ed4:	0000                	unimp
    3ed6:	4000                	lw	s0,0(s0)
    3ed8:	0000                	unimp
    3eda:	0000                	unimp
    3edc:	0000                	unimp
    3ede:	4008                	lw	a0,0(s0)
    3ee0:	0000                	unimp
    3ee2:	0000                	unimp
    3ee4:	0000                	unimp
    3ee6:	4042                	.2byte	0x4042
    3ee8:	0000                	unimp
    3eea:	0000                	unimp
    3eec:	0000                	unimp
    3eee:	4022                	.2byte	0x4022
    3ef0:	0000                	unimp
    3ef2:	0000                	unimp
    3ef4:	0000                	unimp
    3ef6:	402a                	.2byte	0x402a
    3ef8:	0000                	unimp
    3efa:	0000                	unimp
    3efc:	0000                	unimp
    3efe:	402c                	lw	a1,64(s0)
    3f00:	0000                	unimp
    3f02:	0000                	unimp
    3f04:	0000                	unimp
    3f06:	4030                	lw	a2,64(s0)
    3f08:	0000                	unimp
    3f0a:	0000                	unimp
    3f0c:	0000                	unimp
    3f0e:	00004037          	lui	zero,0x4
    3f12:	0000                	unimp
    3f14:	0000                	unimp
    3f16:	00004037          	lui	zero,0x4
    3f1a:	0000                	unimp
    3f1c:	0000                	unimp
    3f1e:	4038                	lw	a4,64(s0)
    3f20:	0000                	unimp
    3f22:	0000                	unimp
    3f24:	0000                	unimp
    3f26:	402a                	.2byte	0x402a
    3f28:	0000                	unimp
    3f2a:	0000                	unimp
    3f2c:	0000                	unimp
    3f2e:	4036                	.2byte	0x4036
    3f30:	0000                	unimp
    3f32:	0000                	unimp
    3f34:	0000                	unimp
    3f36:	4032                	.2byte	0x4032
    3f38:	0000                	unimp
    3f3a:	0000                	unimp
    3f3c:	0000                	unimp
    3f3e:	403a                	.2byte	0x403a
    3f40:	0000                	unimp
    3f42:	0000                	unimp
    3f44:	0000                	unimp
    3f46:	4038                	lw	a4,64(s0)
    3f48:	0000                	unimp
    3f4a:	0000                	unimp
    3f4c:	0000                	unimp
    3f4e:	4036                	.2byte	0x4036
    3f50:	0000                	unimp
    3f52:	0000                	unimp
    3f54:	0000                	unimp
    3f56:	403c                	lw	a5,64(s0)
    3f58:	0000                	unimp
    3f5a:	0000                	unimp
    3f5c:	0000                	unimp
    3f5e:	00004037          	lui	zero,0x4
    3f62:	0000                	unimp
    3f64:	0000                	unimp
    3f66:	4039                	c.li	zero,14
    3f68:	0000                	unimp
    3f6a:	0000                	unimp
    3f6c:	0000                	unimp
    3f6e:	403c                	lw	a5,64(s0)
    3f70:	0000                	unimp
    3f72:	0000                	unimp
    3f74:	0000                	unimp
    3f76:	401c                	lw	a5,0(s0)
    3f78:	0000                	unimp
    3f7a:	0000                	unimp
    3f7c:	0000                	unimp
    3f7e:	402c                	lw	a1,64(s0)
    3f80:	0000                	unimp
    3f82:	0000                	unimp
    3f84:	0000                	unimp
    3f86:	0000403f 00000000 	.8byte	0x403f
    3f8e:	402e                	.2byte	0x402e
    3f90:	0000                	unimp
    3f92:	0000                	unimp
    3f94:	0000                	unimp
    3f96:	00004037          	lui	zero,0x4
    3f9a:	0000                	unimp
    3f9c:	0000                	unimp
    3f9e:	4039                	c.li	zero,14
    3fa0:	0000                	unimp
    3fa2:	0000                	unimp
    3fa4:	0000                	unimp
    3fa6:	402e                	.2byte	0x402e
    3fa8:	0000                	unimp
    3faa:	0000                	unimp
    3fac:	0000                	unimp
    3fae:	4034                	lw	a3,64(s0)
    3fb0:	0000                	unimp
    3fb2:	0000                	unimp
    3fb4:	0000                	unimp
    3fb6:	402e                	.2byte	0x402e
    3fb8:	0000                	unimp
    3fba:	0000                	unimp
    3fbc:	0000                	unimp
    3fbe:	00004033          	xor	zero,zero,zero
    3fc2:	0000                	unimp
    3fc4:	0000                	unimp
    3fc6:	4020                	lw	s0,64(s0)
    3fc8:	0000                	unimp
    3fca:	0000                	unimp
    3fcc:	0000                	unimp
    3fce:	0000403b          	.4byte	0x403b
    3fd2:	0000                	unimp
    3fd4:	0000                	unimp
    3fd6:	4039                	c.li	zero,14
    3fd8:	0000                	unimp
    3fda:	0000                	unimp
    3fdc:	0000                	unimp
    3fde:	00004033          	xor	zero,zero,zero
    3fe2:	0000                	unimp
    3fe4:	0000                	unimp
    3fe6:	4035                	c.li	zero,13
    3fe8:	0000                	unimp
    3fea:	0000                	unimp
    3fec:	0000                	unimp
    3fee:	403c                	lw	a5,64(s0)
    3ff0:	0000                	unimp
    3ff2:	0000                	unimp
    3ff4:	0000                	unimp
    3ff6:	4026                	.2byte	0x4026
    3ff8:	0000                	unimp
    3ffa:	0000                	unimp
    3ffc:	0000                	unimp
    3ffe:	402c                	lw	a1,64(s0)
    4000:	0000                	unimp
    4002:	0000                	unimp
    4004:	0000                	unimp
    4006:	4039                	c.li	zero,14
    4008:	0000                	unimp
    400a:	0000                	unimp
    400c:	0000                	unimp
    400e:	4038                	lw	a4,64(s0)
    4010:	0000                	unimp
    4012:	0000                	unimp
    4014:	0000                	unimp
    4016:	4026                	.2byte	0x4026
    4018:	0000                	unimp
    401a:	0000                	unimp
    401c:	0000                	unimp
    401e:	403d                	c.li	zero,15
    4020:	0000                	unimp
    4022:	0000                	unimp
    4024:	0000                	unimp
    4026:	00004033          	xor	zero,zero,zero
    402a:	0000                	unimp
    402c:	0000                	unimp
    402e:	4039                	c.li	zero,14
    4030:	0000                	unimp
    4032:	0000                	unimp
    4034:	0000                	unimp
    4036:	4030                	lw	a2,64(s0)
    4038:	0000                	unimp
    403a:	0000                	unimp
    403c:	8000                	.2byte	0x8000
    403e:	4040                	lw	s0,4(s0)
    4040:	0000                	unimp
    4042:	0000                	unimp
    4044:	0000                	unimp
    4046:	4032                	.2byte	0x4032
    4048:	0000                	unimp
    404a:	0000                	unimp
    404c:	0000                	unimp
    404e:	4022                	.2byte	0x4022
    4050:	0000                	unimp
    4052:	0000                	unimp
    4054:	0000                	unimp
    4056:	4008                	lw	a0,0(s0)
    4058:	0000                	unimp
    405a:	0000                	unimp
    405c:	0000                	unimp
    405e:	402a                	.2byte	0x402a
    4060:	0000                	unimp
    4062:	0000                	unimp
    4064:	0000                	unimp
    4066:	402a                	.2byte	0x402a
    4068:	0000                	unimp
    406a:	0000                	unimp
    406c:	0000                	unimp
    406e:	402a                	.2byte	0x402a
    4070:	0000                	unimp
    4072:	0000                	unimp
    4074:	0000                	unimp
    4076:	4035                	c.li	zero,13
    4078:	0000                	unimp
    407a:	0000                	unimp
    407c:	0000                	unimp
    407e:	4034                	lw	a3,64(s0)
    4080:	0000                	unimp
    4082:	0000                	unimp
    4084:	0000                	unimp
    4086:	00004037          	lui	zero,0x4
    408a:	0000                	unimp
    408c:	0000                	unimp
    408e:	401c                	lw	a5,0(s0)
    4090:	0000                	unimp
    4092:	0000                	unimp
    4094:	0000                	unimp
    4096:	4026                	.2byte	0x4026
    4098:	0000                	unimp
    409a:	0000                	unimp
    409c:	0000                	unimp
    409e:	4032                	.2byte	0x4032
    40a0:	0000                	unimp
    40a2:	0000                	unimp
    40a4:	0000                	unimp
    40a6:	4039                	c.li	zero,14
    40a8:	0000                	unimp
    40aa:	0000                	unimp
    40ac:	0000                	unimp
    40ae:	403a                	.2byte	0x403a
    40b0:	0000                	unimp
    40b2:	0000                	unimp
    40b4:	0000                	unimp
    40b6:	403e                	.2byte	0x403e
    40b8:	0000                	unimp
    40ba:	0000                	unimp
    40bc:	0000                	unimp
    40be:	4028                	lw	a0,64(s0)
    40c0:	0000                	unimp
    40c2:	0000                	unimp
    40c4:	0000                	unimp
    40c6:	4035                	c.li	zero,13
    40c8:	0000                	unimp
    40ca:	0000                	unimp
    40cc:	0000                	unimp
    40ce:	4035                	c.li	zero,13
    40d0:	0000                	unimp
    40d2:	0000                	unimp
    40d4:	0000                	unimp
    40d6:	0000403b          	.4byte	0x403b
    40da:	0000                	unimp
    40dc:	0000                	unimp
    40de:	402c                	lw	a1,64(s0)
    40e0:	0000                	unimp
    40e2:	0000                	unimp
    40e4:	0000                	unimp
    40e6:	4035                	c.li	zero,13
    40e8:	0000                	unimp
    40ea:	0000                	unimp
    40ec:	0000                	unimp
    40ee:	0000403f 00000000 	.8byte	0x403f
    40f6:	4008                	lw	a0,0(s0)
    40f8:	0000                	unimp
    40fa:	0000                	unimp
    40fc:	0000                	unimp
    40fe:	4035                	c.li	zero,13
    4100:	0000                	unimp
    4102:	0000                	unimp
    4104:	0000                	unimp
    4106:	402c                	lw	a1,64(s0)
    4108:	0000                	unimp
    410a:	0000                	unimp
    410c:	0000                	unimp
    410e:	4034                	lw	a3,64(s0)
    4110:	0000                	unimp
    4112:	0000                	unimp
    4114:	0000                	unimp
    4116:	403e                	.2byte	0x403e
    4118:	0000                	unimp
    411a:	0000                	unimp
    411c:	0000                	unimp
    411e:	4034                	lw	a3,64(s0)
    4120:	0000                	unimp
    4122:	0000                	unimp
    4124:	0000                	unimp
    4126:	4035                	c.li	zero,13
    4128:	0000                	unimp
    412a:	0000                	unimp
    412c:	0000                	unimp
    412e:	4040                	lw	s0,4(s0)
    4130:	0000                	unimp
    4132:	0000                	unimp
    4134:	0000                	unimp
    4136:	0000403b          	.4byte	0x403b
    413a:	0000                	unimp
    413c:	0000                	unimp
    413e:	4038                	lw	a4,64(s0)
    4140:	0000                	unimp
    4142:	0000                	unimp
    4144:	0000                	unimp
    4146:	4030                	lw	a2,64(s0)
    4148:	0000                	unimp
    414a:	0000                	unimp
    414c:	0000                	unimp
    414e:	0000403f 00000000 	.8byte	0x403f
    4156:	4014                	lw	a3,0(s0)
    4158:	0000                	unimp
    415a:	0000                	unimp
    415c:	0000                	unimp
    415e:	4034                	lw	a3,64(s0)
    4160:	0000                	unimp
    4162:	0000                	unimp
    4164:	0000                	unimp
    4166:	402c                	lw	a1,64(s0)
    4168:	0000                	unimp
    416a:	0000                	unimp
    416c:	0000                	unimp
    416e:	4031                	c.li	zero,12
    4170:	0000                	unimp
    4172:	0000                	unimp
    4174:	0000                	unimp
    4176:	402e                	.2byte	0x402e
    4178:	0000                	unimp
    417a:	0000                	unimp
    417c:	0000                	unimp
    417e:	4030                	lw	a2,64(s0)
    4180:	0000                	unimp
    4182:	0000                	unimp
    4184:	0000                	unimp
    4186:	00004033          	xor	zero,zero,zero
    418a:	0000                	unimp
    418c:	0000                	unimp
    418e:	402a                	.2byte	0x402a
    4190:	0000                	unimp
    4192:	0000                	unimp
    4194:	0000                	unimp
    4196:	4010                	lw	a2,0(s0)
    4198:	0000                	unimp
    419a:	0000                	unimp
    419c:	0000                	unimp
    419e:	4035                	c.li	zero,13
    41a0:	0000                	unimp
    41a2:	0000                	unimp
    41a4:	0000                	unimp
    41a6:	4034                	lw	a3,64(s0)
    41a8:	0000                	unimp
    41aa:	0000                	unimp
    41ac:	0000                	unimp
    41ae:	403d                	c.li	zero,15
    41b0:	0000                	unimp
    41b2:	0000                	unimp
    41b4:	0000                	unimp
    41b6:	4024                	lw	s1,64(s0)
    41b8:	0000                	unimp
    41ba:	0000                	unimp
    41bc:	0000                	unimp
    41be:	4036                	.2byte	0x4036
    41c0:	0000                	unimp
    41c2:	0000                	unimp
    41c4:	0000                	unimp
    41c6:	00004033          	xor	zero,zero,zero
    41ca:	0000                	unimp
    41cc:	0000                	unimp
    41ce:	4038                	lw	a4,64(s0)
    41d0:	0000                	unimp
    41d2:	0000                	unimp
    41d4:	0000                	unimp
    41d6:	403d                	c.li	zero,15
    41d8:	0000                	unimp
    41da:	0000                	unimp
    41dc:	0000                	unimp
    41de:	402c                	lw	a1,64(s0)
    41e0:	0000                	unimp
    41e2:	0000                	unimp
    41e4:	0000                	unimp
    41e6:	4024                	lw	s1,64(s0)
    41e8:	0000                	unimp
    41ea:	0000                	unimp
    41ec:	0000                	unimp
    41ee:	402e                	.2byte	0x402e
    41f0:	0000                	unimp
    41f2:	0000                	unimp
    41f4:	0000                	unimp
    41f6:	4032                	.2byte	0x4032
    41f8:	0000                	unimp
    41fa:	0000                	unimp
    41fc:	0000                	unimp
    41fe:	401c                	lw	a5,0(s0)
    4200:	0000                	unimp
    4202:	0000                	unimp
    4204:	0000                	unimp
    4206:	403c                	lw	a5,64(s0)
    4208:	0000                	unimp
    420a:	0000                	unimp
    420c:	0000                	unimp
    420e:	4031                	c.li	zero,12
    4210:	0000                	unimp
    4212:	0000                	unimp
    4214:	0000                	unimp
    4216:	401c                	lw	a5,0(s0)
    4218:	0000                	unimp
    421a:	0000                	unimp
    421c:	0000                	unimp
    421e:	4000                	lw	s0,0(s0)
    4220:	0000                	unimp
    4222:	0000                	unimp
    4224:	0000                	unimp
    4226:	3ff0                	fld	fa2,248(a5)
    4228:	0000                	unimp
    422a:	0000                	unimp
    422c:	0000                	unimp
    422e:	00004033          	xor	zero,zero,zero
    4232:	0000                	unimp
    4234:	0000                	unimp
    4236:	4031                	c.li	zero,12
    4238:	0000                	unimp
    423a:	0000                	unimp
    423c:	0000                	unimp
    423e:	00004037          	lui	zero,0x4
    4242:	0000                	unimp
    4244:	0000                	unimp
    4246:	0000403f 00000000 	.8byte	0x403f
    424e:	402a                	.2byte	0x402a
    4250:	0000                	unimp
    4252:	0000                	unimp
    4254:	0000                	unimp
    4256:	4034                	lw	a3,64(s0)
    4258:	0000                	unimp
    425a:	0000                	unimp
    425c:	0000                	unimp
    425e:	4042                	.2byte	0x4042
    4260:	0000                	unimp
    4262:	0000                	unimp
    4264:	0000                	unimp
    4266:	4031                	c.li	zero,12
    4268:	0000                	unimp
    426a:	0000                	unimp
    426c:	0000                	unimp
    426e:	0000403b          	.4byte	0x403b
    4272:	0000                	unimp
    4274:	0000                	unimp
    4276:	403c                	lw	a5,64(s0)
    4278:	0000                	unimp
    427a:	0000                	unimp
    427c:	0000                	unimp
    427e:	4032                	.2byte	0x4032
    4280:	0000                	unimp
    4282:	0000                	unimp
    4284:	0000                	unimp
    4286:	4034                	lw	a3,64(s0)
    4288:	0000                	unimp
    428a:	0000                	unimp
    428c:	0000                	unimp
    428e:	403d                	c.li	zero,15
    4290:	0000                	unimp
    4292:	0000                	unimp
    4294:	0000                	unimp
    4296:	4031                	c.li	zero,12
    4298:	0000                	unimp
    429a:	0000                	unimp
    429c:	0000                	unimp
    429e:	00004037          	lui	zero,0x4
    42a2:	0000                	unimp
    42a4:	0000                	unimp
    42a6:	4038                	lw	a4,64(s0)
    42a8:	0000                	unimp
    42aa:	0000                	unimp
    42ac:	0000                	unimp
    42ae:	00004037          	lui	zero,0x4
    42b2:	0000                	unimp
    42b4:	0000                	unimp
    42b6:	403a                	.2byte	0x403a
    42b8:	0000                	unimp
    42ba:	0000                	unimp
    42bc:	0000                	unimp
    42be:	4031                	c.li	zero,12
    42c0:	0000                	unimp
    42c2:	0000                	unimp
    42c4:	0000                	unimp
    42c6:	4022                	.2byte	0x4022
    42c8:	0000                	unimp
    42ca:	0000                	unimp
    42cc:	0000                	unimp
    42ce:	403a                	.2byte	0x403a
    42d0:	0000                	unimp
    42d2:	0000                	unimp
    42d4:	0000                	unimp
    42d6:	4030                	lw	a2,64(s0)
    42d8:	0000                	unimp
    42da:	0000                	unimp
    42dc:	0000                	unimp
    42de:	4032                	.2byte	0x4032
    42e0:	0000                	unimp
    42e2:	0000                	unimp
    42e4:	0000                	unimp
    42e6:	4024                	lw	s1,64(s0)
    42e8:	0000                	unimp
    42ea:	0000                	unimp
    42ec:	0000                	unimp
    42ee:	403c                	lw	a5,64(s0)
    42f0:	0000                	unimp
    42f2:	0000                	unimp
    42f4:	0000                	unimp
    42f6:	4040                	lw	s0,4(s0)
    42f8:	0000                	unimp
    42fa:	0000                	unimp
    42fc:	0000                	unimp
    42fe:	4034                	lw	a3,64(s0)
    4300:	0000                	unimp
    4302:	0000                	unimp
    4304:	0000                	unimp
    4306:	00004033          	xor	zero,zero,zero
    430a:	0000                	unimp
    430c:	0000                	unimp
    430e:	402c                	lw	a1,64(s0)
    4310:	0000                	unimp
    4312:	0000                	unimp
    4314:	0000                	unimp
    4316:	4036                	.2byte	0x4036
    4318:	0000                	unimp
    431a:	0000                	unimp
    431c:	0000                	unimp
    431e:	00004037          	lui	zero,0x4
    4322:	0000                	unimp
    4324:	0000                	unimp
    4326:	402a                	.2byte	0x402a
    4328:	0000                	unimp
    432a:	0000                	unimp
    432c:	0000                	unimp
    432e:	4036                	.2byte	0x4036
    4330:	0000                	unimp
    4332:	0000                	unimp
    4334:	0000                	unimp
    4336:	402c                	lw	a1,64(s0)
    4338:	0000                	unimp
    433a:	0000                	unimp
    433c:	0000                	unimp
    433e:	401c                	lw	a5,0(s0)
    4340:	0000                	unimp
    4342:	0000                	unimp
    4344:	0000                	unimp
    4346:	4034                	lw	a3,64(s0)
    4348:	0000                	unimp
    434a:	0000                	unimp
    434c:	0000                	unimp
    434e:	4024                	lw	s1,64(s0)
    4350:	0000                	unimp
    4352:	0000                	unimp
    4354:	0000                	unimp
    4356:	4039                	c.li	zero,14
    4358:	0000                	unimp
    435a:	0000                	unimp
    435c:	0000                	unimp
    435e:	4022                	.2byte	0x4022
    4360:	0000                	unimp
    4362:	0000                	unimp
    4364:	0000                	unimp
    4366:	401c                	lw	a5,0(s0)
    4368:	0000                	unimp
    436a:	0000                	unimp
    436c:	0000                	unimp
    436e:	4000                	lw	s0,0(s0)
    4370:	0000                	unimp
    4372:	0000                	unimp
    4374:	0000                	unimp
    4376:	0000403f 00000000 	.8byte	0x403f
    437e:	4030                	lw	a2,64(s0)
    4380:	0000                	unimp
    4382:	0000                	unimp
    4384:	0000                	unimp
    4386:	4030                	lw	a2,64(s0)
    4388:	0000                	unimp
    438a:	0000                	unimp
    438c:	0000                	unimp
    438e:	4036                	.2byte	0x4036
    4390:	0000                	unimp
    4392:	0000                	unimp
    4394:	0000                	unimp
    4396:	4014                	lw	a3,0(s0)
    4398:	0000                	unimp
    439a:	0000                	unimp
    439c:	0000                	unimp
    439e:	402e                	.2byte	0x402e
    43a0:	0000                	unimp
    43a2:	0000                	unimp
    43a4:	0000                	unimp
    43a6:	403a                	.2byte	0x403a
    43a8:	0000                	unimp
    43aa:	0000                	unimp
    43ac:	0000                	unimp
    43ae:	00004037          	lui	zero,0x4
    43b2:	0000                	unimp
    43b4:	0000                	unimp
    43b6:	4024                	lw	s1,64(s0)
    43b8:	0000                	unimp
    43ba:	0000                	unimp
    43bc:	0000                	unimp
    43be:	4032                	.2byte	0x4032
    43c0:	0000                	unimp
    43c2:	0000                	unimp
    43c4:	0000                	unimp
    43c6:	4040                	lw	s0,4(s0)
    43c8:	0000                	unimp
    43ca:	0000                	unimp
    43cc:	0000                	unimp
    43ce:	4038                	lw	a4,64(s0)
    43d0:	0000                	unimp
    43d2:	0000                	unimp
    43d4:	0000                	unimp
    43d6:	402e                	.2byte	0x402e
    43d8:	0000                	unimp
    43da:	0000                	unimp
    43dc:	0000                	unimp
    43de:	403e                	.2byte	0x403e
    43e0:	0000                	unimp
    43e2:	0000                	unimp
    43e4:	0000                	unimp
    43e6:	4030                	lw	a2,64(s0)
    43e8:	0000                	unimp
    43ea:	0000                	unimp
    43ec:	0000                	unimp
    43ee:	402a                	.2byte	0x402a
    43f0:	0000                	unimp
    43f2:	0000                	unimp
    43f4:	0000                	unimp
    43f6:	402e                	.2byte	0x402e
    43f8:	0000                	unimp
    43fa:	0000                	unimp
    43fc:	0000                	unimp
    43fe:	401c                	lw	a5,0(s0)
    4400:	0000                	unimp
    4402:	0000                	unimp
    4404:	0000                	unimp
    4406:	4026                	.2byte	0x4026
    4408:	0000                	unimp
    440a:	0000                	unimp
    440c:	0000                	unimp
    440e:	4018                	lw	a4,0(s0)
    4410:	0000                	unimp
    4412:	0000                	unimp
    4414:	0000                	unimp
    4416:	4035                	c.li	zero,13
    4418:	0000                	unimp
    441a:	0000                	unimp
    441c:	0000                	unimp
    441e:	402c                	lw	a1,64(s0)
    4420:	0000                	unimp
    4422:	0000                	unimp
    4424:	0000                	unimp
    4426:	4039                	c.li	zero,14
    4428:	0000                	unimp
    442a:	0000                	unimp
    442c:	0000                	unimp
    442e:	4035                	c.li	zero,13
    4430:	0000                	unimp
    4432:	0000                	unimp
    4434:	0000                	unimp
    4436:	4026                	.2byte	0x4026
    4438:	0000                	unimp
    443a:	0000                	unimp
    443c:	0000                	unimp
    443e:	4030                	lw	a2,64(s0)
    4440:	0000                	unimp
    4442:	0000                	unimp
    4444:	0000                	unimp
    4446:	402c                	lw	a1,64(s0)
    4448:	0000                	unimp
    444a:	0000                	unimp
    444c:	0000                	unimp
    444e:	403a                	.2byte	0x403a
    4450:	0000                	unimp
    4452:	0000                	unimp
    4454:	0000                	unimp
    4456:	4039                	c.li	zero,14
    4458:	0000                	unimp
    445a:	0000                	unimp
    445c:	0000                	unimp
    445e:	402e                	.2byte	0x402e
    4460:	0000                	unimp
    4462:	0000                	unimp
    4464:	0000                	unimp
    4466:	4036                	.2byte	0x4036
    4468:	0000                	unimp
    446a:	0000                	unimp
    446c:	0000                	unimp
    446e:	4038                	lw	a4,64(s0)
    4470:	0000                	unimp
    4472:	0000                	unimp
    4474:	0000                	unimp
    4476:	4010                	lw	a2,0(s0)
    4478:	0000                	unimp
    447a:	0000                	unimp
    447c:	0000                	unimp
    447e:	00004033          	xor	zero,zero,zero
    4482:	0000                	unimp
    4484:	0000                	unimp
    4486:	402c                	lw	a1,64(s0)
    4488:	0000                	unimp
    448a:	0000                	unimp
    448c:	0000                	unimp
    448e:	403a                	.2byte	0x403a
    4490:	0000                	unimp
    4492:	0000                	unimp
    4494:	0000                	unimp
    4496:	4036                	.2byte	0x4036
    4498:	0000                	unimp
    449a:	0000                	unimp
    449c:	0000                	unimp
    449e:	4031                	c.li	zero,12
    44a0:	0000                	unimp
    44a2:	0000                	unimp
    44a4:	0000                	unimp
    44a6:	402a                	.2byte	0x402a
    44a8:	0000                	unimp
    44aa:	0000                	unimp
    44ac:	0000                	unimp
    44ae:	402c                	lw	a1,64(s0)
    44b0:	0000                	unimp
    44b2:	0000                	unimp
    44b4:	0000                	unimp
    44b6:	401c                	lw	a5,0(s0)
    44b8:	0000                	unimp
    44ba:	0000                	unimp
    44bc:	0000                	unimp
    44be:	4040                	lw	s0,4(s0)
    44c0:	0000                	unimp
    44c2:	0000                	unimp
    44c4:	0000                	unimp
    44c6:	4034                	lw	a3,64(s0)
    44c8:	0000                	unimp
    44ca:	0000                	unimp
    44cc:	8000                	.2byte	0x8000
    44ce:	4040                	lw	s0,4(s0)
    44d0:	0000                	unimp
    44d2:	0000                	unimp
    44d4:	0000                	unimp
    44d6:	402a                	.2byte	0x402a
    44d8:	0000                	unimp
    44da:	0000                	unimp
    44dc:	0000                	unimp
    44de:	401c                	lw	a5,0(s0)
    44e0:	0000                	unimp
    44e2:	0000                	unimp
    44e4:	0000                	unimp
    44e6:	403d                	c.li	zero,15
    44e8:	0000                	unimp
    44ea:	0000                	unimp
    44ec:	0000                	unimp
    44ee:	4020                	lw	s0,64(s0)
    44f0:	0000                	unimp
    44f2:	0000                	unimp
    44f4:	0000                	unimp
    44f6:	403a                	.2byte	0x403a
    44f8:	0000                	unimp
    44fa:	0000                	unimp
    44fc:	0000                	unimp
    44fe:	4018                	lw	a4,0(s0)
    4500:	0000                	unimp
    4502:	0000                	unimp
    4504:	0000                	unimp
    4506:	4022                	.2byte	0x4022
    4508:	0000                	unimp
    450a:	0000                	unimp
    450c:	0000                	unimp
    450e:	402a                	.2byte	0x402a
    4510:	0000                	unimp
    4512:	0000                	unimp
    4514:	0000                	unimp
    4516:	4036                	.2byte	0x4036
    4518:	0000                	unimp
    451a:	0000                	unimp
    451c:	0000                	unimp
    451e:	00004037          	lui	zero,0x4
    4522:	0000                	unimp
    4524:	0000                	unimp
    4526:	4020                	lw	s0,64(s0)
    4528:	0000                	unimp
    452a:	0000                	unimp
    452c:	0000                	unimp
    452e:	4036                	.2byte	0x4036
    4530:	0000                	unimp
    4532:	0000                	unimp
    4534:	0000                	unimp
    4536:	4036                	.2byte	0x4036
    4538:	0000                	unimp
    453a:	0000                	unimp
    453c:	0000                	unimp
    453e:	4024                	lw	s1,64(s0)
    4540:	0000                	unimp
    4542:	0000                	unimp
    4544:	0000                	unimp
    4546:	4038                	lw	a4,64(s0)
    4548:	0000                	unimp
    454a:	0000                	unimp
    454c:	0000                	unimp
    454e:	4000                	lw	s0,0(s0)
    4550:	0000                	unimp
    4552:	0000                	unimp
    4554:	0000                	unimp
    4556:	4031                	c.li	zero,12
    4558:	0000                	unimp
    455a:	0000                	unimp
    455c:	0000                	unimp
    455e:	4022                	.2byte	0x4022
    4560:	0000                	unimp
    4562:	0000                	unimp
    4564:	0000                	unimp
    4566:	4036                	.2byte	0x4036
    4568:	0000                	unimp
    456a:	0000                	unimp
    456c:	0000                	unimp
    456e:	403e                	.2byte	0x403e
    4570:	0000                	unimp
    4572:	0000                	unimp
    4574:	0000                	unimp
    4576:	4038                	lw	a4,64(s0)
    4578:	0000                	unimp
    457a:	0000                	unimp
    457c:	8000                	.2byte	0x8000
    457e:	4040                	lw	s0,4(s0)
    4580:	0000                	unimp
    4582:	0000                	unimp
    4584:	0000                	unimp
    4586:	4039                	c.li	zero,14
    4588:	0000                	unimp
    458a:	0000                	unimp
    458c:	0000                	unimp
    458e:	4031                	c.li	zero,12
    4590:	0000                	unimp
    4592:	0000                	unimp
    4594:	0000                	unimp
    4596:	00004037          	lui	zero,0x4
    459a:	0000                	unimp
    459c:	0000                	unimp
    459e:	4022                	.2byte	0x4022
    45a0:	0000                	unimp
    45a2:	0000                	unimp
    45a4:	0000                	unimp
    45a6:	402a                	.2byte	0x402a
    45a8:	0000                	unimp
    45aa:	0000                	unimp
    45ac:	0000                	unimp
    45ae:	402e                	.2byte	0x402e
    45b0:	0000                	unimp
    45b2:	0000                	unimp
    45b4:	0000                	unimp
    45b6:	00004037          	lui	zero,0x4
    45ba:	0000                	unimp
    45bc:	0000                	unimp
    45be:	4024                	lw	s1,64(s0)
    45c0:	0000                	unimp
    45c2:	0000                	unimp
    45c4:	0000                	unimp
    45c6:	3ff0                	fld	fa2,248(a5)
    45c8:	0000                	unimp
    45ca:	0000                	unimp
    45cc:	0000                	unimp
    45ce:	4036                	.2byte	0x4036
    45d0:	0000                	unimp
    45d2:	0000                	unimp
    45d4:	0000                	unimp
    45d6:	4031                	c.li	zero,12
    45d8:	0000                	unimp
    45da:	0000                	unimp
    45dc:	0000                	unimp
    45de:	4024                	lw	s1,64(s0)
    45e0:	0000                	unimp
    45e2:	0000                	unimp
    45e4:	0000                	unimp
    45e6:	4040                	lw	s0,4(s0)
    45e8:	0000                	unimp
    45ea:	0000                	unimp
    45ec:	0000                	unimp
    45ee:	4038                	lw	a4,64(s0)
    45f0:	0000                	unimp
    45f2:	0000                	unimp
    45f4:	0000                	unimp
    45f6:	403a                	.2byte	0x403a
    45f8:	0000                	unimp
    45fa:	0000                	unimp
    45fc:	0000                	unimp
    45fe:	4010                	lw	a2,0(s0)
    4600:	0000                	unimp
    4602:	0000                	unimp
    4604:	0000                	unimp
    4606:	402e                	.2byte	0x402e
    4608:	0000                	unimp
    460a:	0000                	unimp
    460c:	0000                	unimp
    460e:	0000                	unimp
    4610:	0000                	unimp
    4612:	0000                	unimp
    4614:	0000                	unimp
    4616:	0000403b          	.4byte	0x403b
    461a:	0000                	unimp
    461c:	0000                	unimp
    461e:	00004037          	lui	zero,0x4
    4622:	0000                	unimp
    4624:	0000                	unimp
    4626:	403c                	lw	a5,64(s0)
    4628:	0000                	unimp
    462a:	0000                	unimp
    462c:	0000                	unimp
    462e:	00004037          	lui	zero,0x4
    4632:	0000                	unimp
    4634:	0000                	unimp
    4636:	403e                	.2byte	0x403e
    4638:	0000                	unimp
    463a:	0000                	unimp
    463c:	0000                	unimp
    463e:	401c                	lw	a5,0(s0)
    4640:	0000                	unimp
    4642:	0000                	unimp
    4644:	0000                	unimp
    4646:	4030                	lw	a2,64(s0)
    4648:	0000                	unimp
    464a:	0000                	unimp
    464c:	8000                	.2byte	0x8000
    464e:	4040                	lw	s0,4(s0)
    4650:	0000                	unimp
    4652:	0000                	unimp
    4654:	0000                	unimp
    4656:	4034                	lw	a3,64(s0)
    4658:	0000                	unimp
    465a:	0000                	unimp
    465c:	0000                	unimp
    465e:	402c                	lw	a1,64(s0)
    4660:	0000                	unimp
    4662:	0000                	unimp
    4664:	0000                	unimp
    4666:	00004037          	lui	zero,0x4
    466a:	0000                	unimp
    466c:	0000                	unimp
    466e:	402c                	lw	a1,64(s0)
    4670:	0000                	unimp
    4672:	0000                	unimp
    4674:	0000                	unimp
    4676:	4034                	lw	a3,64(s0)
    4678:	0000                	unimp
    467a:	0000                	unimp
    467c:	0000                	unimp
    467e:	402c                	lw	a1,64(s0)
    4680:	0000                	unimp
    4682:	0000                	unimp
    4684:	0000                	unimp
    4686:	401c                	lw	a5,0(s0)
    4688:	0000                	unimp
    468a:	0000                	unimp
    468c:	0000                	unimp
    468e:	4039                	c.li	zero,14
    4690:	0000                	unimp
    4692:	0000                	unimp
    4694:	0000                	unimp
    4696:	4038                	lw	a4,64(s0)
    4698:	0000                	unimp
    469a:	0000                	unimp
    469c:	0000                	unimp
    469e:	4028                	lw	a0,64(s0)
    46a0:	0000                	unimp
    46a2:	0000                	unimp
    46a4:	0000                	unimp
    46a6:	403d                	c.li	zero,15
    46a8:	0000                	unimp
    46aa:	0000                	unimp
    46ac:	0000                	unimp
    46ae:	4030                	lw	a2,64(s0)
    46b0:	0000                	unimp
    46b2:	0000                	unimp
    46b4:	0000                	unimp
    46b6:	4031                	c.li	zero,12
    46b8:	0000                	unimp
    46ba:	0000                	unimp
    46bc:	0000                	unimp
    46be:	4034                	lw	a3,64(s0)
    46c0:	0000                	unimp
    46c2:	0000                	unimp
    46c4:	0000                	unimp
    46c6:	403d                	c.li	zero,15
    46c8:	0000                	unimp
    46ca:	0000                	unimp
    46cc:	0000                	unimp
    46ce:	4030                	lw	a2,64(s0)
    46d0:	0000                	unimp
    46d2:	0000                	unimp
    46d4:	0000                	unimp
    46d6:	402a                	.2byte	0x402a
    46d8:	0000                	unimp
    46da:	0000                	unimp
    46dc:	0000                	unimp
    46de:	4032                	.2byte	0x4032
    46e0:	0000                	unimp
    46e2:	0000                	unimp
    46e4:	0000                	unimp
    46e6:	403a                	.2byte	0x403a
    46e8:	0000                	unimp
    46ea:	0000                	unimp
    46ec:	0000                	unimp
    46ee:	4032                	.2byte	0x4032
    46f0:	0000                	unimp
    46f2:	0000                	unimp
    46f4:	0000                	unimp
    46f6:	4032                	.2byte	0x4032
    46f8:	0000                	unimp
    46fa:	0000                	unimp
    46fc:	0000                	unimp
    46fe:	4031                	c.li	zero,12
    4700:	0000                	unimp
    4702:	0000                	unimp
    4704:	0000                	unimp
    4706:	402a                	.2byte	0x402a
    4708:	0000                	unimp
    470a:	0000                	unimp
    470c:	0000                	unimp
    470e:	403d                	c.li	zero,15
    4710:	0000                	unimp
    4712:	0000                	unimp
    4714:	0000                	unimp
    4716:	402c                	lw	a1,64(s0)
    4718:	0000                	unimp
    471a:	0000                	unimp
    471c:	0000                	unimp
    471e:	4031                	c.li	zero,12
    4720:	0000                	unimp
    4722:	0000                	unimp
    4724:	0000                	unimp
    4726:	4038                	lw	a4,64(s0)
    4728:	0000                	unimp
    472a:	0000                	unimp
    472c:	0000                	unimp
    472e:	4030                	lw	a2,64(s0)
    4730:	0000                	unimp
    4732:	0000                	unimp
    4734:	0000                	unimp
    4736:	4035                	c.li	zero,13
    4738:	0000                	unimp
    473a:	0000                	unimp
    473c:	0000                	unimp
    473e:	402c                	lw	a1,64(s0)
    4740:	0000                	unimp
    4742:	0000                	unimp
    4744:	0000                	unimp
    4746:	403a                	.2byte	0x403a
    4748:	0000                	unimp
    474a:	0000                	unimp
    474c:	0000                	unimp
    474e:	4022                	.2byte	0x4022
    4750:	0000                	unimp
    4752:	0000                	unimp
    4754:	0000                	unimp
    4756:	4026                	.2byte	0x4026
    4758:	0000                	unimp
    475a:	0000                	unimp
    475c:	0000                	unimp
    475e:	403c                	lw	a5,64(s0)
    4760:	0000                	unimp
    4762:	0000                	unimp
    4764:	0000                	unimp
    4766:	4039                	c.li	zero,14
    4768:	0000                	unimp
    476a:	0000                	unimp
    476c:	0000                	unimp
    476e:	402e                	.2byte	0x402e
    4770:	0000                	unimp
    4772:	0000                	unimp
    4774:	0000                	unimp
    4776:	402e                	.2byte	0x402e
    4778:	0000                	unimp
    477a:	0000                	unimp
    477c:	0000                	unimp
    477e:	4028                	lw	a0,64(s0)
    4780:	0000                	unimp
    4782:	0000                	unimp
    4784:	0000                	unimp
    4786:	4018                	lw	a4,0(s0)
    4788:	0000                	unimp
    478a:	0000                	unimp
    478c:	0000                	unimp
    478e:	402c                	lw	a1,64(s0)
    4790:	0000                	unimp
    4792:	0000                	unimp
    4794:	0000                	unimp
    4796:	0000403b          	.4byte	0x403b
    479a:	0000                	unimp
    479c:	0000                	unimp
    479e:	402c                	lw	a1,64(s0)
    47a0:	0000                	unimp
    47a2:	0000                	unimp
    47a4:	0000                	unimp
    47a6:	4038                	lw	a4,64(s0)
    47a8:	0000                	unimp
    47aa:	0000                	unimp
    47ac:	0000                	unimp
    47ae:	4032                	.2byte	0x4032
    47b0:	0000                	unimp
    47b2:	0000                	unimp
    47b4:	0000                	unimp
    47b6:	4032                	.2byte	0x4032
    47b8:	0000                	unimp
    47ba:	0000                	unimp
    47bc:	0000                	unimp
    47be:	402c                	lw	a1,64(s0)
    47c0:	0000                	unimp
    47c2:	0000                	unimp
    47c4:	0000                	unimp
    47c6:	4040                	lw	s0,4(s0)
    47c8:	0000                	unimp
    47ca:	0000                	unimp
    47cc:	0000                	unimp
    47ce:	4035                	c.li	zero,13
    47d0:	0000                	unimp
    47d2:	0000                	unimp
    47d4:	0000                	unimp
    47d6:	403a                	.2byte	0x403a
    47d8:	0000                	unimp
    47da:	0000                	unimp
    47dc:	0000                	unimp
    47de:	402a                	.2byte	0x402a
    47e0:	0000                	unimp
    47e2:	0000                	unimp
    47e4:	0000                	unimp
    47e6:	4018                	lw	a4,0(s0)
    47e8:	0000                	unimp
    47ea:	0000                	unimp
    47ec:	0000                	unimp
    47ee:	4038                	lw	a4,64(s0)
    47f0:	0000                	unimp
    47f2:	0000                	unimp
    47f4:	0000                	unimp
    47f6:	4036                	.2byte	0x4036
    47f8:	0000                	unimp
    47fa:	0000                	unimp
    47fc:	0000                	unimp
    47fe:	0000403b          	.4byte	0x403b
    4802:	0000                	unimp
    4804:	0000                	unimp
    4806:	4031                	c.li	zero,12
    4808:	0000                	unimp
    480a:	0000                	unimp
    480c:	0000                	unimp
    480e:	403a                	.2byte	0x403a
    4810:	0000                	unimp
    4812:	0000                	unimp
    4814:	0000                	unimp
    4816:	00004033          	xor	zero,zero,zero
    481a:	0000                	unimp
    481c:	0000                	unimp
    481e:	4035                	c.li	zero,13
    4820:	0000                	unimp
    4822:	0000                	unimp
    4824:	0000                	unimp
    4826:	00004033          	xor	zero,zero,zero
    482a:	0000                	unimp
    482c:	0000                	unimp
    482e:	4022                	.2byte	0x4022
    4830:	0000                	unimp
    4832:	0000                	unimp
    4834:	0000                	unimp
    4836:	4035                	c.li	zero,13
    4838:	0000                	unimp
    483a:	0000                	unimp
    483c:	0000                	unimp
    483e:	4039                	c.li	zero,14
    4840:	0000                	unimp
    4842:	0000                	unimp
    4844:	0000                	unimp
    4846:	4031                	c.li	zero,12
    4848:	0000                	unimp
    484a:	0000                	unimp
    484c:	0000                	unimp
    484e:	0000403b          	.4byte	0x403b
    4852:	0000                	unimp
    4854:	0000                	unimp
    4856:	402e                	.2byte	0x402e
    4858:	0000                	unimp
    485a:	0000                	unimp
    485c:	0000                	unimp
    485e:	4032                	.2byte	0x4032

0000000000004860 <input2_data>:
    4860:	0000                	unimp
    4862:	0000                	unimp
    4864:	0000                	unimp
    4866:	4020                	lw	s0,64(s0)
    4868:	0000                	unimp
    486a:	0000                	unimp
    486c:	0000                	unimp
    486e:	4018                	lw	a4,0(s0)
    4870:	0000                	unimp
    4872:	0000                	unimp
    4874:	0000                	unimp
    4876:	0000                	unimp
    4878:	0000                	unimp
    487a:	0000                	unimp
    487c:	0000                	unimp
    487e:	4032                	.2byte	0x4032
    4880:	0000                	unimp
    4882:	0000                	unimp
    4884:	0000                	unimp
    4886:	4018                	lw	a4,0(s0)
    4888:	0000                	unimp
    488a:	0000                	unimp
    488c:	0000                	unimp
    488e:	4024                	lw	s1,64(s0)
    4890:	0000                	unimp
    4892:	0000                	unimp
    4894:	0000                	unimp
    4896:	3ff0                	fld	fa2,248(a5)
    4898:	0000                	unimp
    489a:	0000                	unimp
    489c:	0000                	unimp
    489e:	4000                	lw	s0,0(s0)
    48a0:	0000                	unimp
    48a2:	0000                	unimp
    48a4:	0000                	unimp
    48a6:	4010                	lw	a2,0(s0)
    48a8:	0000                	unimp
    48aa:	0000                	unimp
    48ac:	0000                	unimp
    48ae:	4000                	lw	s0,0(s0)
    48b0:	0000                	unimp
    48b2:	0000                	unimp
    48b4:	0000                	unimp
    48b6:	4010                	lw	a2,0(s0)
    48b8:	0000                	unimp
    48ba:	0000                	unimp
    48bc:	0000                	unimp
    48be:	4024                	lw	s1,64(s0)
    48c0:	0000                	unimp
    48c2:	0000                	unimp
    48c4:	0000                	unimp
    48c6:	4018                	lw	a4,0(s0)
    48c8:	0000                	unimp
    48ca:	0000                	unimp
    48cc:	0000                	unimp
    48ce:	4026                	.2byte	0x4026
    48d0:	0000                	unimp
    48d2:	0000                	unimp
    48d4:	0000                	unimp
    48d6:	4031                	c.li	zero,12
    48d8:	0000                	unimp
    48da:	0000                	unimp
    48dc:	0000                	unimp
    48de:	4010                	lw	a2,0(s0)
    48e0:	0000                	unimp
    48e2:	0000                	unimp
    48e4:	0000                	unimp
    48e6:	0000                	unimp
    48e8:	0000                	unimp
    48ea:	0000                	unimp
    48ec:	0000                	unimp
    48ee:	4030                	lw	a2,64(s0)
    48f0:	0000                	unimp
    48f2:	0000                	unimp
    48f4:	0000                	unimp
    48f6:	402c                	lw	a1,64(s0)
    48f8:	0000                	unimp
    48fa:	0000                	unimp
    48fc:	0000                	unimp
    48fe:	4028                	lw	a0,64(s0)
    4900:	0000                	unimp
    4902:	0000                	unimp
    4904:	0000                	unimp
    4906:	4022                	.2byte	0x4022
    4908:	0000                	unimp
    490a:	0000                	unimp
    490c:	0000                	unimp
    490e:	4020                	lw	s0,64(s0)
    4910:	0000                	unimp
    4912:	0000                	unimp
    4914:	0000                	unimp
    4916:	402a                	.2byte	0x402a
    4918:	0000                	unimp
    491a:	0000                	unimp
    491c:	0000                	unimp
    491e:	402e                	.2byte	0x402e
    4920:	0000                	unimp
    4922:	0000                	unimp
    4924:	0000                	unimp
    4926:	4032                	.2byte	0x4032
    4928:	0000                	unimp
    492a:	0000                	unimp
    492c:	0000                	unimp
    492e:	4000                	lw	s0,0(s0)
    4930:	0000                	unimp
    4932:	0000                	unimp
    4934:	0000                	unimp
    4936:	402a                	.2byte	0x402a
    4938:	0000                	unimp
    493a:	0000                	unimp
    493c:	0000                	unimp
    493e:	4024                	lw	s1,64(s0)
    4940:	0000                	unimp
    4942:	0000                	unimp
    4944:	0000                	unimp
    4946:	4014                	lw	a3,0(s0)
    4948:	0000                	unimp
    494a:	0000                	unimp
    494c:	0000                	unimp
    494e:	4010                	lw	a2,0(s0)
    4950:	0000                	unimp
    4952:	0000                	unimp
    4954:	0000                	unimp
    4956:	4028                	lw	a0,64(s0)
    4958:	0000                	unimp
    495a:	0000                	unimp
    495c:	0000                	unimp
    495e:	4022                	.2byte	0x4022
    4960:	0000                	unimp
    4962:	0000                	unimp
    4964:	0000                	unimp
    4966:	3ff0                	fld	fa2,248(a5)
    4968:	0000                	unimp
    496a:	0000                	unimp
    496c:	0000                	unimp
    496e:	402a                	.2byte	0x402a
    4970:	0000                	unimp
    4972:	0000                	unimp
    4974:	0000                	unimp
    4976:	4028                	lw	a0,64(s0)
    4978:	0000                	unimp
    497a:	0000                	unimp
    497c:	0000                	unimp
    497e:	401c                	lw	a5,0(s0)
    4980:	0000                	unimp
    4982:	0000                	unimp
    4984:	0000                	unimp
    4986:	4024                	lw	s1,64(s0)
    4988:	0000                	unimp
    498a:	0000                	unimp
    498c:	0000                	unimp
    498e:	4031                	c.li	zero,12
    4990:	0000                	unimp
    4992:	0000                	unimp
    4994:	0000                	unimp
    4996:	4026                	.2byte	0x4026
    4998:	0000                	unimp
    499a:	0000                	unimp
    499c:	0000                	unimp
    499e:	4024                	lw	s1,64(s0)
    49a0:	0000                	unimp
    49a2:	0000                	unimp
    49a4:	0000                	unimp
    49a6:	4032                	.2byte	0x4032
    49a8:	0000                	unimp
    49aa:	0000                	unimp
    49ac:	0000                	unimp
    49ae:	402e                	.2byte	0x402e
    49b0:	0000                	unimp
    49b2:	0000                	unimp
    49b4:	0000                	unimp
    49b6:	4026                	.2byte	0x4026
    49b8:	0000                	unimp
    49ba:	0000                	unimp
    49bc:	0000                	unimp
    49be:	4028                	lw	a0,64(s0)
    49c0:	0000                	unimp
    49c2:	0000                	unimp
    49c4:	0000                	unimp
    49c6:	401c                	lw	a5,0(s0)
    49c8:	0000                	unimp
    49ca:	0000                	unimp
    49cc:	0000                	unimp
    49ce:	4022                	.2byte	0x4022
    49d0:	0000                	unimp
    49d2:	0000                	unimp
    49d4:	0000                	unimp
    49d6:	4018                	lw	a4,0(s0)
    49d8:	0000                	unimp
    49da:	0000                	unimp
    49dc:	0000                	unimp
    49de:	4014                	lw	a3,0(s0)
    49e0:	0000                	unimp
    49e2:	0000                	unimp
    49e4:	0000                	unimp
    49e6:	4026                	.2byte	0x4026
    49e8:	0000                	unimp
    49ea:	0000                	unimp
    49ec:	0000                	unimp
    49ee:	401c                	lw	a5,0(s0)
    49f0:	0000                	unimp
    49f2:	0000                	unimp
    49f4:	0000                	unimp
    49f6:	4024                	lw	s1,64(s0)
    49f8:	0000                	unimp
    49fa:	0000                	unimp
    49fc:	0000                	unimp
    49fe:	4028                	lw	a0,64(s0)
    4a00:	0000                	unimp
    4a02:	0000                	unimp
    4a04:	0000                	unimp
    4a06:	4032                	.2byte	0x4032
    4a08:	0000                	unimp
    4a0a:	0000                	unimp
    4a0c:	0000                	unimp
    4a0e:	4032                	.2byte	0x4032
    4a10:	0000                	unimp
    4a12:	0000                	unimp
    4a14:	0000                	unimp
    4a16:	402e                	.2byte	0x402e
    4a18:	0000                	unimp
    4a1a:	0000                	unimp
    4a1c:	0000                	unimp
    4a1e:	3ff0                	fld	fa2,248(a5)
    4a20:	0000                	unimp
    4a22:	0000                	unimp
    4a24:	0000                	unimp
    4a26:	4008                	lw	a0,0(s0)
    4a28:	0000                	unimp
    4a2a:	0000                	unimp
    4a2c:	0000                	unimp
    4a2e:	4032                	.2byte	0x4032
    4a30:	0000                	unimp
    4a32:	0000                	unimp
    4a34:	0000                	unimp
    4a36:	4026                	.2byte	0x4026
    4a38:	0000                	unimp
    4a3a:	0000                	unimp
    4a3c:	0000                	unimp
    4a3e:	4030                	lw	a2,64(s0)
    4a40:	0000                	unimp
    4a42:	0000                	unimp
    4a44:	0000                	unimp
    4a46:	402a                	.2byte	0x402a
    4a48:	0000                	unimp
    4a4a:	0000                	unimp
    4a4c:	0000                	unimp
    4a4e:	4032                	.2byte	0x4032
    4a50:	0000                	unimp
    4a52:	0000                	unimp
    4a54:	0000                	unimp
    4a56:	4010                	lw	a2,0(s0)
    4a58:	0000                	unimp
    4a5a:	0000                	unimp
    4a5c:	0000                	unimp
    4a5e:	402a                	.2byte	0x402a
    4a60:	0000                	unimp
    4a62:	0000                	unimp
    4a64:	0000                	unimp
    4a66:	4020                	lw	s0,64(s0)
    4a68:	0000                	unimp
    4a6a:	0000                	unimp
    4a6c:	0000                	unimp
    4a6e:	401c                	lw	a5,0(s0)
    4a70:	0000                	unimp
    4a72:	0000                	unimp
    4a74:	0000                	unimp
    4a76:	4024                	lw	s1,64(s0)
    4a78:	0000                	unimp
    4a7a:	0000                	unimp
    4a7c:	0000                	unimp
    4a7e:	402a                	.2byte	0x402a
    4a80:	0000                	unimp
    4a82:	0000                	unimp
    4a84:	0000                	unimp
    4a86:	0000                	unimp
    4a88:	0000                	unimp
    4a8a:	0000                	unimp
    4a8c:	0000                	unimp
    4a8e:	4022                	.2byte	0x4022
    4a90:	0000                	unimp
    4a92:	0000                	unimp
    4a94:	0000                	unimp
    4a96:	3ff0                	fld	fa2,248(a5)
    4a98:	0000                	unimp
    4a9a:	0000                	unimp
    4a9c:	0000                	unimp
    4a9e:	4030                	lw	a2,64(s0)
    4aa0:	0000                	unimp
    4aa2:	0000                	unimp
    4aa4:	0000                	unimp
    4aa6:	402a                	.2byte	0x402a
    4aa8:	0000                	unimp
    4aaa:	0000                	unimp
    4aac:	0000                	unimp
    4aae:	401c                	lw	a5,0(s0)
    4ab0:	0000                	unimp
    4ab2:	0000                	unimp
    4ab4:	0000                	unimp
    4ab6:	4014                	lw	a3,0(s0)
    4ab8:	0000                	unimp
    4aba:	0000                	unimp
    4abc:	0000                	unimp
    4abe:	4014                	lw	a3,0(s0)
    4ac0:	0000                	unimp
    4ac2:	0000                	unimp
    4ac4:	0000                	unimp
    4ac6:	4026                	.2byte	0x4026
    4ac8:	0000                	unimp
    4aca:	0000                	unimp
    4acc:	0000                	unimp
    4ace:	3ff0                	fld	fa2,248(a5)
    4ad0:	0000                	unimp
    4ad2:	0000                	unimp
    4ad4:	0000                	unimp
    4ad6:	4018                	lw	a4,0(s0)
    4ad8:	0000                	unimp
    4ada:	0000                	unimp
    4adc:	0000                	unimp
    4ade:	4024                	lw	s1,64(s0)
    4ae0:	0000                	unimp
    4ae2:	0000                	unimp
    4ae4:	0000                	unimp
    4ae6:	4028                	lw	a0,64(s0)
    4ae8:	0000                	unimp
    4aea:	0000                	unimp
    4aec:	0000                	unimp
    4aee:	4008                	lw	a0,0(s0)
    4af0:	0000                	unimp
    4af2:	0000                	unimp
    4af4:	0000                	unimp
    4af6:	4024                	lw	s1,64(s0)
    4af8:	0000                	unimp
    4afa:	0000                	unimp
    4afc:	0000                	unimp
    4afe:	4014                	lw	a3,0(s0)
    4b00:	0000                	unimp
    4b02:	0000                	unimp
    4b04:	0000                	unimp
    4b06:	402e                	.2byte	0x402e
    4b08:	0000                	unimp
    4b0a:	0000                	unimp
    4b0c:	0000                	unimp
    4b0e:	402e                	.2byte	0x402e
    4b10:	0000                	unimp
    4b12:	0000                	unimp
    4b14:	0000                	unimp
    4b16:	402a                	.2byte	0x402a
    4b18:	0000                	unimp
    4b1a:	0000                	unimp
    4b1c:	0000                	unimp
    4b1e:	402c                	lw	a1,64(s0)
    4b20:	0000                	unimp
    4b22:	0000                	unimp
    4b24:	0000                	unimp
    4b26:	402c                	lw	a1,64(s0)
    4b28:	0000                	unimp
    4b2a:	0000                	unimp
    4b2c:	0000                	unimp
    4b2e:	3ff0                	fld	fa2,248(a5)
    4b30:	0000                	unimp
    4b32:	0000                	unimp
    4b34:	0000                	unimp
    4b36:	4032                	.2byte	0x4032
    4b38:	0000                	unimp
    4b3a:	0000                	unimp
    4b3c:	0000                	unimp
    4b3e:	4014                	lw	a3,0(s0)
    4b40:	0000                	unimp
    4b42:	0000                	unimp
    4b44:	0000                	unimp
    4b46:	4030                	lw	a2,64(s0)
    4b48:	0000                	unimp
    4b4a:	0000                	unimp
    4b4c:	0000                	unimp
    4b4e:	402c                	lw	a1,64(s0)
    4b50:	0000                	unimp
    4b52:	0000                	unimp
    4b54:	0000                	unimp
    4b56:	4024                	lw	s1,64(s0)
    4b58:	0000                	unimp
    4b5a:	0000                	unimp
    4b5c:	0000                	unimp
    4b5e:	4010                	lw	a2,0(s0)
    4b60:	0000                	unimp
    4b62:	0000                	unimp
    4b64:	0000                	unimp
    4b66:	4020                	lw	s0,64(s0)
    4b68:	0000                	unimp
    4b6a:	0000                	unimp
    4b6c:	0000                	unimp
    4b6e:	4010                	lw	a2,0(s0)
    4b70:	0000                	unimp
    4b72:	0000                	unimp
    4b74:	0000                	unimp
    4b76:	4018                	lw	a4,0(s0)
    4b78:	0000                	unimp
    4b7a:	0000                	unimp
    4b7c:	0000                	unimp
    4b7e:	4018                	lw	a4,0(s0)
    4b80:	0000                	unimp
    4b82:	0000                	unimp
    4b84:	0000                	unimp
    4b86:	402a                	.2byte	0x402a
    4b88:	0000                	unimp
    4b8a:	0000                	unimp
    4b8c:	0000                	unimp
    4b8e:	402c                	lw	a1,64(s0)
    4b90:	0000                	unimp
    4b92:	0000                	unimp
    4b94:	0000                	unimp
    4b96:	4020                	lw	s0,64(s0)
    4b98:	0000                	unimp
    4b9a:	0000                	unimp
    4b9c:	0000                	unimp
    4b9e:	4014                	lw	a3,0(s0)
    4ba0:	0000                	unimp
    4ba2:	0000                	unimp
    4ba4:	0000                	unimp
    4ba6:	402c                	lw	a1,64(s0)
    4ba8:	0000                	unimp
    4baa:	0000                	unimp
    4bac:	0000                	unimp
    4bae:	4024                	lw	s1,64(s0)
    4bb0:	0000                	unimp
    4bb2:	0000                	unimp
    4bb4:	0000                	unimp
    4bb6:	4022                	.2byte	0x4022
    4bb8:	0000                	unimp
    4bba:	0000                	unimp
    4bbc:	0000                	unimp
    4bbe:	4024                	lw	s1,64(s0)
    4bc0:	0000                	unimp
    4bc2:	0000                	unimp
    4bc4:	0000                	unimp
    4bc6:	4031                	c.li	zero,12
    4bc8:	0000                	unimp
    4bca:	0000                	unimp
    4bcc:	0000                	unimp
    4bce:	402e                	.2byte	0x402e
    4bd0:	0000                	unimp
    4bd2:	0000                	unimp
    4bd4:	0000                	unimp
    4bd6:	4018                	lw	a4,0(s0)
    4bd8:	0000                	unimp
    4bda:	0000                	unimp
    4bdc:	0000                	unimp
    4bde:	4030                	lw	a2,64(s0)
    4be0:	0000                	unimp
    4be2:	0000                	unimp
    4be4:	0000                	unimp
    4be6:	4028                	lw	a0,64(s0)
    4be8:	0000                	unimp
    4bea:	0000                	unimp
    4bec:	0000                	unimp
    4bee:	4022                	.2byte	0x4022
    4bf0:	0000                	unimp
    4bf2:	0000                	unimp
    4bf4:	0000                	unimp
    4bf6:	4024                	lw	s1,64(s0)
    4bf8:	0000                	unimp
    4bfa:	0000                	unimp
    4bfc:	0000                	unimp
    4bfe:	4030                	lw	a2,64(s0)
    4c00:	0000                	unimp
    4c02:	0000                	unimp
    4c04:	0000                	unimp
    4c06:	4030                	lw	a2,64(s0)
    4c08:	0000                	unimp
    4c0a:	0000                	unimp
    4c0c:	0000                	unimp
    4c0e:	4020                	lw	s0,64(s0)
    4c10:	0000                	unimp
    4c12:	0000                	unimp
    4c14:	0000                	unimp
    4c16:	3ff0                	fld	fa2,248(a5)
    4c18:	0000                	unimp
    4c1a:	0000                	unimp
    4c1c:	0000                	unimp
    4c1e:	4028                	lw	a0,64(s0)
    4c20:	0000                	unimp
    4c22:	0000                	unimp
    4c24:	0000                	unimp
    4c26:	401c                	lw	a5,0(s0)
    4c28:	0000                	unimp
    4c2a:	0000                	unimp
    4c2c:	0000                	unimp
    4c2e:	0000                	unimp
    4c30:	0000                	unimp
    4c32:	0000                	unimp
    4c34:	0000                	unimp
    4c36:	0000                	unimp
    4c38:	0000                	unimp
    4c3a:	0000                	unimp
    4c3c:	0000                	unimp
    4c3e:	4008                	lw	a0,0(s0)
    4c40:	0000                	unimp
    4c42:	0000                	unimp
    4c44:	0000                	unimp
    4c46:	4014                	lw	a3,0(s0)
    4c48:	0000                	unimp
    4c4a:	0000                	unimp
    4c4c:	0000                	unimp
    4c4e:	401c                	lw	a5,0(s0)
    4c50:	0000                	unimp
    4c52:	0000                	unimp
    4c54:	0000                	unimp
    4c56:	4024                	lw	s1,64(s0)
    4c58:	0000                	unimp
    4c5a:	0000                	unimp
    4c5c:	0000                	unimp
    4c5e:	4008                	lw	a0,0(s0)
    4c60:	0000                	unimp
    4c62:	0000                	unimp
    4c64:	0000                	unimp
    4c66:	4031                	c.li	zero,12
    4c68:	0000                	unimp
    4c6a:	0000                	unimp
    4c6c:	0000                	unimp
    4c6e:	4024                	lw	s1,64(s0)
    4c70:	0000                	unimp
    4c72:	0000                	unimp
    4c74:	0000                	unimp
    4c76:	4032                	.2byte	0x4032
    4c78:	0000                	unimp
    4c7a:	0000                	unimp
    4c7c:	0000                	unimp
    4c7e:	4030                	lw	a2,64(s0)
    4c80:	0000                	unimp
    4c82:	0000                	unimp
    4c84:	0000                	unimp
    4c86:	3ff0                	fld	fa2,248(a5)
    4c88:	0000                	unimp
    4c8a:	0000                	unimp
    4c8c:	0000                	unimp
    4c8e:	4026                	.2byte	0x4026
    4c90:	0000                	unimp
    4c92:	0000                	unimp
    4c94:	0000                	unimp
    4c96:	4032                	.2byte	0x4032
    4c98:	0000                	unimp
    4c9a:	0000                	unimp
    4c9c:	0000                	unimp
    4c9e:	4022                	.2byte	0x4022
    4ca0:	0000                	unimp
    4ca2:	0000                	unimp
    4ca4:	0000                	unimp
    4ca6:	4000                	lw	s0,0(s0)
    4ca8:	0000                	unimp
    4caa:	0000                	unimp
    4cac:	0000                	unimp
    4cae:	0000                	unimp
    4cb0:	0000                	unimp
    4cb2:	0000                	unimp
    4cb4:	0000                	unimp
    4cb6:	4028                	lw	a0,64(s0)
    4cb8:	0000                	unimp
    4cba:	0000                	unimp
    4cbc:	0000                	unimp
    4cbe:	4018                	lw	a4,0(s0)
    4cc0:	0000                	unimp
    4cc2:	0000                	unimp
    4cc4:	0000                	unimp
    4cc6:	402a                	.2byte	0x402a
    4cc8:	0000                	unimp
    4cca:	0000                	unimp
    4ccc:	0000                	unimp
    4cce:	3ff0                	fld	fa2,248(a5)
    4cd0:	0000                	unimp
    4cd2:	0000                	unimp
    4cd4:	0000                	unimp
    4cd6:	402a                	.2byte	0x402a
    4cd8:	0000                	unimp
    4cda:	0000                	unimp
    4cdc:	0000                	unimp
    4cde:	4014                	lw	a3,0(s0)
    4ce0:	0000                	unimp
    4ce2:	0000                	unimp
    4ce4:	0000                	unimp
    4ce6:	401c                	lw	a5,0(s0)
    4ce8:	0000                	unimp
    4cea:	0000                	unimp
    4cec:	0000                	unimp
    4cee:	402a                	.2byte	0x402a
    4cf0:	0000                	unimp
    4cf2:	0000                	unimp
    4cf4:	0000                	unimp
    4cf6:	4031                	c.li	zero,12
    4cf8:	0000                	unimp
    4cfa:	0000                	unimp
    4cfc:	0000                	unimp
    4cfe:	4022                	.2byte	0x4022
    4d00:	0000                	unimp
    4d02:	0000                	unimp
    4d04:	0000                	unimp
    4d06:	402e                	.2byte	0x402e
    4d08:	0000                	unimp
    4d0a:	0000                	unimp
    4d0c:	0000                	unimp
    4d0e:	402a                	.2byte	0x402a
    4d10:	0000                	unimp
    4d12:	0000                	unimp
    4d14:	0000                	unimp
    4d16:	4014                	lw	a3,0(s0)
    4d18:	0000                	unimp
    4d1a:	0000                	unimp
    4d1c:	0000                	unimp
    4d1e:	4000                	lw	s0,0(s0)
    4d20:	0000                	unimp
    4d22:	0000                	unimp
    4d24:	0000                	unimp
    4d26:	4010                	lw	a2,0(s0)
    4d28:	0000                	unimp
    4d2a:	0000                	unimp
    4d2c:	0000                	unimp
    4d2e:	4010                	lw	a2,0(s0)
    4d30:	0000                	unimp
    4d32:	0000                	unimp
    4d34:	0000                	unimp
    4d36:	4008                	lw	a0,0(s0)
    4d38:	0000                	unimp
    4d3a:	0000                	unimp
    4d3c:	0000                	unimp
    4d3e:	0000                	unimp
    4d40:	0000                	unimp
    4d42:	0000                	unimp
    4d44:	0000                	unimp
    4d46:	4022                	.2byte	0x4022
    4d48:	0000                	unimp
    4d4a:	0000                	unimp
    4d4c:	0000                	unimp
    4d4e:	4026                	.2byte	0x4026
    4d50:	0000                	unimp
    4d52:	0000                	unimp
    4d54:	0000                	unimp
    4d56:	4008                	lw	a0,0(s0)
    4d58:	0000                	unimp
    4d5a:	0000                	unimp
    4d5c:	0000                	unimp
    4d5e:	4028                	lw	a0,64(s0)
    4d60:	0000                	unimp
    4d62:	0000                	unimp
    4d64:	0000                	unimp
    4d66:	4018                	lw	a4,0(s0)
    4d68:	0000                	unimp
    4d6a:	0000                	unimp
    4d6c:	0000                	unimp
    4d6e:	4026                	.2byte	0x4026
    4d70:	0000                	unimp
    4d72:	0000                	unimp
    4d74:	0000                	unimp
    4d76:	3ff0                	fld	fa2,248(a5)
    4d78:	0000                	unimp
    4d7a:	0000                	unimp
    4d7c:	0000                	unimp
    4d7e:	4030                	lw	a2,64(s0)
    4d80:	0000                	unimp
    4d82:	0000                	unimp
    4d84:	0000                	unimp
    4d86:	4028                	lw	a0,64(s0)
    4d88:	0000                	unimp
    4d8a:	0000                	unimp
    4d8c:	0000                	unimp
    4d8e:	4026                	.2byte	0x4026
    4d90:	0000                	unimp
    4d92:	0000                	unimp
    4d94:	0000                	unimp
    4d96:	4000                	lw	s0,0(s0)
    4d98:	0000                	unimp
    4d9a:	0000                	unimp
    4d9c:	0000                	unimp
    4d9e:	4000                	lw	s0,0(s0)
    4da0:	0000                	unimp
    4da2:	0000                	unimp
    4da4:	0000                	unimp
    4da6:	402e                	.2byte	0x402e
    4da8:	0000                	unimp
    4daa:	0000                	unimp
    4dac:	0000                	unimp
    4dae:	4028                	lw	a0,64(s0)
    4db0:	0000                	unimp
    4db2:	0000                	unimp
    4db4:	0000                	unimp
    4db6:	4020                	lw	s0,64(s0)
    4db8:	0000                	unimp
    4dba:	0000                	unimp
    4dbc:	0000                	unimp
    4dbe:	4022                	.2byte	0x4022
    4dc0:	0000                	unimp
    4dc2:	0000                	unimp
    4dc4:	0000                	unimp
    4dc6:	402c                	lw	a1,64(s0)
    4dc8:	0000                	unimp
    4dca:	0000                	unimp
    4dcc:	0000                	unimp
    4dce:	4000                	lw	s0,0(s0)
    4dd0:	0000                	unimp
    4dd2:	0000                	unimp
    4dd4:	0000                	unimp
    4dd6:	4026                	.2byte	0x4026
    4dd8:	0000                	unimp
    4dda:	0000                	unimp
    4ddc:	0000                	unimp
    4dde:	0000                	unimp
    4de0:	0000                	unimp
    4de2:	0000                	unimp
    4de4:	0000                	unimp
    4de6:	0000                	unimp
    4de8:	0000                	unimp
    4dea:	0000                	unimp
    4dec:	0000                	unimp
    4dee:	401c                	lw	a5,0(s0)
    4df0:	0000                	unimp
    4df2:	0000                	unimp
    4df4:	0000                	unimp
    4df6:	4000                	lw	s0,0(s0)
    4df8:	0000                	unimp
    4dfa:	0000                	unimp
    4dfc:	0000                	unimp
    4dfe:	402a                	.2byte	0x402a
    4e00:	0000                	unimp
    4e02:	0000                	unimp
    4e04:	0000                	unimp
    4e06:	402e                	.2byte	0x402e
    4e08:	0000                	unimp
    4e0a:	0000                	unimp
    4e0c:	0000                	unimp
    4e0e:	4032                	.2byte	0x4032
    4e10:	0000                	unimp
    4e12:	0000                	unimp
    4e14:	0000                	unimp
    4e16:	401c                	lw	a5,0(s0)
    4e18:	0000                	unimp
    4e1a:	0000                	unimp
    4e1c:	0000                	unimp
    4e1e:	4030                	lw	a2,64(s0)
    4e20:	0000                	unimp
    4e22:	0000                	unimp
    4e24:	0000                	unimp
    4e26:	4030                	lw	a2,64(s0)
    4e28:	0000                	unimp
    4e2a:	0000                	unimp
    4e2c:	0000                	unimp
    4e2e:	3ff0                	fld	fa2,248(a5)
    4e30:	0000                	unimp
    4e32:	0000                	unimp
    4e34:	0000                	unimp
    4e36:	3ff0                	fld	fa2,248(a5)
    4e38:	0000                	unimp
    4e3a:	0000                	unimp
    4e3c:	0000                	unimp
    4e3e:	4028                	lw	a0,64(s0)
    4e40:	0000                	unimp
    4e42:	0000                	unimp
    4e44:	0000                	unimp
    4e46:	4028                	lw	a0,64(s0)
    4e48:	0000                	unimp
    4e4a:	0000                	unimp
    4e4c:	0000                	unimp
    4e4e:	4000                	lw	s0,0(s0)
    4e50:	0000                	unimp
    4e52:	0000                	unimp
    4e54:	0000                	unimp
    4e56:	4000                	lw	s0,0(s0)
    4e58:	0000                	unimp
    4e5a:	0000                	unimp
    4e5c:	0000                	unimp
    4e5e:	3ff0                	fld	fa2,248(a5)
    4e60:	0000                	unimp
    4e62:	0000                	unimp
    4e64:	0000                	unimp
    4e66:	401c                	lw	a5,0(s0)
    4e68:	0000                	unimp
    4e6a:	0000                	unimp
    4e6c:	0000                	unimp
    4e6e:	4010                	lw	a2,0(s0)
    4e70:	0000                	unimp
    4e72:	0000                	unimp
    4e74:	0000                	unimp
    4e76:	0000                	unimp
    4e78:	0000                	unimp
    4e7a:	0000                	unimp
    4e7c:	0000                	unimp
    4e7e:	4020                	lw	s0,64(s0)
    4e80:	0000                	unimp
    4e82:	0000                	unimp
    4e84:	0000                	unimp
    4e86:	4032                	.2byte	0x4032
    4e88:	0000                	unimp
    4e8a:	0000                	unimp
    4e8c:	0000                	unimp
    4e8e:	4010                	lw	a2,0(s0)
    4e90:	0000                	unimp
    4e92:	0000                	unimp
    4e94:	0000                	unimp
    4e96:	4026                	.2byte	0x4026
    4e98:	0000                	unimp
    4e9a:	0000                	unimp
    4e9c:	0000                	unimp
    4e9e:	4018                	lw	a4,0(s0)
    4ea0:	0000                	unimp
    4ea2:	0000                	unimp
    4ea4:	0000                	unimp
    4ea6:	4031                	c.li	zero,12
    4ea8:	0000                	unimp
    4eaa:	0000                	unimp
    4eac:	0000                	unimp
    4eae:	402a                	.2byte	0x402a
    4eb0:	0000                	unimp
    4eb2:	0000                	unimp
    4eb4:	0000                	unimp
    4eb6:	4028                	lw	a0,64(s0)
    4eb8:	0000                	unimp
    4eba:	0000                	unimp
    4ebc:	0000                	unimp
    4ebe:	4014                	lw	a3,0(s0)
    4ec0:	0000                	unimp
    4ec2:	0000                	unimp
    4ec4:	0000                	unimp
    4ec6:	4030                	lw	a2,64(s0)
    4ec8:	0000                	unimp
    4eca:	0000                	unimp
    4ecc:	0000                	unimp
    4ece:	4028                	lw	a0,64(s0)
    4ed0:	0000                	unimp
    4ed2:	0000                	unimp
    4ed4:	0000                	unimp
    4ed6:	0000                	unimp
    4ed8:	0000                	unimp
    4eda:	0000                	unimp
    4edc:	0000                	unimp
    4ede:	4022                	.2byte	0x4022
    4ee0:	0000                	unimp
    4ee2:	0000                	unimp
    4ee4:	0000                	unimp
    4ee6:	4024                	lw	s1,64(s0)
    4ee8:	0000                	unimp
    4eea:	0000                	unimp
    4eec:	0000                	unimp
    4eee:	4024                	lw	s1,64(s0)
    4ef0:	0000                	unimp
    4ef2:	0000                	unimp
    4ef4:	0000                	unimp
    4ef6:	4032                	.2byte	0x4032
    4ef8:	0000                	unimp
    4efa:	0000                	unimp
    4efc:	0000                	unimp
    4efe:	4028                	lw	a0,64(s0)
    4f00:	0000                	unimp
    4f02:	0000                	unimp
    4f04:	0000                	unimp
    4f06:	4020                	lw	s0,64(s0)
    4f08:	0000                	unimp
    4f0a:	0000                	unimp
    4f0c:	0000                	unimp
    4f0e:	401c                	lw	a5,0(s0)
    4f10:	0000                	unimp
    4f12:	0000                	unimp
    4f14:	0000                	unimp
    4f16:	4014                	lw	a3,0(s0)
    4f18:	0000                	unimp
    4f1a:	0000                	unimp
    4f1c:	0000                	unimp
    4f1e:	4020                	lw	s0,64(s0)
    4f20:	0000                	unimp
    4f22:	0000                	unimp
    4f24:	0000                	unimp
    4f26:	4030                	lw	a2,64(s0)
    4f28:	0000                	unimp
    4f2a:	0000                	unimp
    4f2c:	0000                	unimp
    4f2e:	4008                	lw	a0,0(s0)
    4f30:	0000                	unimp
    4f32:	0000                	unimp
    4f34:	0000                	unimp
    4f36:	4022                	.2byte	0x4022
    4f38:	0000                	unimp
    4f3a:	0000                	unimp
    4f3c:	0000                	unimp
    4f3e:	4032                	.2byte	0x4032
    4f40:	0000                	unimp
    4f42:	0000                	unimp
    4f44:	0000                	unimp
    4f46:	4028                	lw	a0,64(s0)
    4f48:	0000                	unimp
    4f4a:	0000                	unimp
    4f4c:	0000                	unimp
    4f4e:	402a                	.2byte	0x402a
    4f50:	0000                	unimp
    4f52:	0000                	unimp
    4f54:	0000                	unimp
    4f56:	4032                	.2byte	0x4032
    4f58:	0000                	unimp
    4f5a:	0000                	unimp
    4f5c:	0000                	unimp
    4f5e:	4018                	lw	a4,0(s0)
    4f60:	0000                	unimp
    4f62:	0000                	unimp
    4f64:	0000                	unimp
    4f66:	4020                	lw	s0,64(s0)
    4f68:	0000                	unimp
    4f6a:	0000                	unimp
    4f6c:	0000                	unimp
    4f6e:	4028                	lw	a0,64(s0)
    4f70:	0000                	unimp
    4f72:	0000                	unimp
    4f74:	0000                	unimp
    4f76:	4000                	lw	s0,0(s0)
    4f78:	0000                	unimp
    4f7a:	0000                	unimp
    4f7c:	0000                	unimp
    4f7e:	4028                	lw	a0,64(s0)
    4f80:	0000                	unimp
    4f82:	0000                	unimp
    4f84:	0000                	unimp
    4f86:	4020                	lw	s0,64(s0)
    4f88:	0000                	unimp
    4f8a:	0000                	unimp
    4f8c:	0000                	unimp
    4f8e:	4020                	lw	s0,64(s0)
    4f90:	0000                	unimp
    4f92:	0000                	unimp
    4f94:	0000                	unimp
    4f96:	4022                	.2byte	0x4022
    4f98:	0000                	unimp
    4f9a:	0000                	unimp
    4f9c:	0000                	unimp
    4f9e:	4032                	.2byte	0x4032
    4fa0:	0000                	unimp
    4fa2:	0000                	unimp
    4fa4:	0000                	unimp
    4fa6:	4020                	lw	s0,64(s0)
    4fa8:	0000                	unimp
    4faa:	0000                	unimp
    4fac:	0000                	unimp
    4fae:	0000                	unimp
    4fb0:	0000                	unimp
    4fb2:	0000                	unimp
    4fb4:	0000                	unimp
    4fb6:	4022                	.2byte	0x4022
    4fb8:	0000                	unimp
    4fba:	0000                	unimp
    4fbc:	0000                	unimp
    4fbe:	4000                	lw	s0,0(s0)
    4fc0:	0000                	unimp
    4fc2:	0000                	unimp
    4fc4:	0000                	unimp
    4fc6:	4018                	lw	a4,0(s0)
    4fc8:	0000                	unimp
    4fca:	0000                	unimp
    4fcc:	0000                	unimp
    4fce:	401c                	lw	a5,0(s0)
    4fd0:	0000                	unimp
    4fd2:	0000                	unimp
    4fd4:	0000                	unimp
    4fd6:	0000                	unimp
    4fd8:	0000                	unimp
    4fda:	0000                	unimp
    4fdc:	0000                	unimp
    4fde:	4008                	lw	a0,0(s0)
    4fe0:	0000                	unimp
    4fe2:	0000                	unimp
    4fe4:	0000                	unimp
    4fe6:	4026                	.2byte	0x4026
    4fe8:	0000                	unimp
    4fea:	0000                	unimp
    4fec:	0000                	unimp
    4fee:	4000                	lw	s0,0(s0)
    4ff0:	0000                	unimp
    4ff2:	0000                	unimp
    4ff4:	0000                	unimp
    4ff6:	4032                	.2byte	0x4032
    4ff8:	0000                	unimp
    4ffa:	0000                	unimp
    4ffc:	0000                	unimp
    4ffe:	4000                	lw	s0,0(s0)
    5000:	0000                	unimp
    5002:	0000                	unimp
    5004:	0000                	unimp
    5006:	4030                	lw	a2,64(s0)
    5008:	0000                	unimp
    500a:	0000                	unimp
    500c:	0000                	unimp
    500e:	3ff0                	fld	fa2,248(a5)
    5010:	0000                	unimp
    5012:	0000                	unimp
    5014:	0000                	unimp
    5016:	4030                	lw	a2,64(s0)
    5018:	0000                	unimp
    501a:	0000                	unimp
    501c:	0000                	unimp
    501e:	4026                	.2byte	0x4026
    5020:	0000                	unimp
    5022:	0000                	unimp
    5024:	0000                	unimp
    5026:	4026                	.2byte	0x4026
    5028:	0000                	unimp
    502a:	0000                	unimp
    502c:	0000                	unimp
    502e:	4030                	lw	a2,64(s0)
    5030:	0000                	unimp
    5032:	0000                	unimp
    5034:	0000                	unimp
    5036:	4030                	lw	a2,64(s0)
    5038:	0000                	unimp
    503a:	0000                	unimp
    503c:	0000                	unimp
    503e:	4026                	.2byte	0x4026
    5040:	0000                	unimp
    5042:	0000                	unimp
    5044:	0000                	unimp
    5046:	401c                	lw	a5,0(s0)
    5048:	0000                	unimp
    504a:	0000                	unimp
    504c:	0000                	unimp
    504e:	4010                	lw	a2,0(s0)
    5050:	0000                	unimp
    5052:	0000                	unimp
    5054:	0000                	unimp
    5056:	402c                	lw	a1,64(s0)
    5058:	0000                	unimp
    505a:	0000                	unimp
    505c:	0000                	unimp
    505e:	4024                	lw	s1,64(s0)
    5060:	0000                	unimp
    5062:	0000                	unimp
    5064:	0000                	unimp
    5066:	4014                	lw	a3,0(s0)
    5068:	0000                	unimp
    506a:	0000                	unimp
    506c:	0000                	unimp
    506e:	4020                	lw	s0,64(s0)
    5070:	0000                	unimp
    5072:	0000                	unimp
    5074:	0000                	unimp
    5076:	4010                	lw	a2,0(s0)
    5078:	0000                	unimp
    507a:	0000                	unimp
    507c:	0000                	unimp
    507e:	402c                	lw	a1,64(s0)
    5080:	0000                	unimp
    5082:	0000                	unimp
    5084:	0000                	unimp
    5086:	4031                	c.li	zero,12
    5088:	0000                	unimp
    508a:	0000                	unimp
    508c:	0000                	unimp
    508e:	402a                	.2byte	0x402a
    5090:	0000                	unimp
    5092:	0000                	unimp
    5094:	0000                	unimp
    5096:	402a                	.2byte	0x402a
    5098:	0000                	unimp
    509a:	0000                	unimp
    509c:	0000                	unimp
    509e:	4008                	lw	a0,0(s0)
    50a0:	0000                	unimp
    50a2:	0000                	unimp
    50a4:	0000                	unimp
    50a6:	3ff0                	fld	fa2,248(a5)
    50a8:	0000                	unimp
    50aa:	0000                	unimp
    50ac:	0000                	unimp
    50ae:	402c                	lw	a1,64(s0)
    50b0:	0000                	unimp
    50b2:	0000                	unimp
    50b4:	0000                	unimp
    50b6:	3ff0                	fld	fa2,248(a5)
    50b8:	0000                	unimp
    50ba:	0000                	unimp
    50bc:	0000                	unimp
    50be:	401c                	lw	a5,0(s0)
    50c0:	0000                	unimp
    50c2:	0000                	unimp
    50c4:	0000                	unimp
    50c6:	0000                	unimp
    50c8:	0000                	unimp
    50ca:	0000                	unimp
    50cc:	0000                	unimp
    50ce:	4000                	lw	s0,0(s0)
    50d0:	0000                	unimp
    50d2:	0000                	unimp
    50d4:	0000                	unimp
    50d6:	401c                	lw	a5,0(s0)
    50d8:	0000                	unimp
    50da:	0000                	unimp
    50dc:	0000                	unimp
    50de:	402c                	lw	a1,64(s0)
    50e0:	0000                	unimp
    50e2:	0000                	unimp
    50e4:	0000                	unimp
    50e6:	4010                	lw	a2,0(s0)
    50e8:	0000                	unimp
    50ea:	0000                	unimp
    50ec:	0000                	unimp
    50ee:	4022                	.2byte	0x4022
    50f0:	0000                	unimp
    50f2:	0000                	unimp
    50f4:	0000                	unimp
    50f6:	402c                	lw	a1,64(s0)
    50f8:	0000                	unimp
    50fa:	0000                	unimp
    50fc:	0000                	unimp
    50fe:	4008                	lw	a0,0(s0)
    5100:	0000                	unimp
    5102:	0000                	unimp
    5104:	0000                	unimp
    5106:	4022                	.2byte	0x4022
    5108:	0000                	unimp
    510a:	0000                	unimp
    510c:	0000                	unimp
    510e:	402a                	.2byte	0x402a
    5110:	0000                	unimp
    5112:	0000                	unimp
    5114:	0000                	unimp
    5116:	402a                	.2byte	0x402a
    5118:	0000                	unimp
    511a:	0000                	unimp
    511c:	0000                	unimp
    511e:	4008                	lw	a0,0(s0)
    5120:	0000                	unimp
    5122:	0000                	unimp
    5124:	0000                	unimp
    5126:	4008                	lw	a0,0(s0)
    5128:	0000                	unimp
    512a:	0000                	unimp
    512c:	0000                	unimp
    512e:	4031                	c.li	zero,12
    5130:	0000                	unimp
    5132:	0000                	unimp
    5134:	0000                	unimp
    5136:	0000                	unimp
    5138:	0000                	unimp
    513a:	0000                	unimp
    513c:	0000                	unimp
    513e:	4032                	.2byte	0x4032
    5140:	0000                	unimp
    5142:	0000                	unimp
    5144:	0000                	unimp
    5146:	4010                	lw	a2,0(s0)
    5148:	0000                	unimp
    514a:	0000                	unimp
    514c:	0000                	unimp
    514e:	4020                	lw	s0,64(s0)
    5150:	0000                	unimp
    5152:	0000                	unimp
    5154:	0000                	unimp
    5156:	4018                	lw	a4,0(s0)
    5158:	0000                	unimp
    515a:	0000                	unimp
    515c:	0000                	unimp
    515e:	4022                	.2byte	0x4022
    5160:	0000                	unimp
    5162:	0000                	unimp
    5164:	0000                	unimp
    5166:	4010                	lw	a2,0(s0)
    5168:	0000                	unimp
    516a:	0000                	unimp
    516c:	0000                	unimp
    516e:	4000                	lw	s0,0(s0)
    5170:	0000                	unimp
    5172:	0000                	unimp
    5174:	0000                	unimp
    5176:	0000                	unimp
    5178:	0000                	unimp
    517a:	0000                	unimp
    517c:	0000                	unimp
    517e:	402c                	lw	a1,64(s0)
    5180:	0000                	unimp
    5182:	0000                	unimp
    5184:	0000                	unimp
    5186:	4008                	lw	a0,0(s0)
    5188:	0000                	unimp
    518a:	0000                	unimp
    518c:	0000                	unimp
    518e:	4008                	lw	a0,0(s0)
    5190:	0000                	unimp
    5192:	0000                	unimp
    5194:	0000                	unimp
    5196:	402c                	lw	a1,64(s0)
    5198:	0000                	unimp
    519a:	0000                	unimp
    519c:	0000                	unimp
    519e:	4020                	lw	s0,64(s0)
    51a0:	0000                	unimp
    51a2:	0000                	unimp
    51a4:	0000                	unimp
    51a6:	4018                	lw	a4,0(s0)
    51a8:	0000                	unimp
    51aa:	0000                	unimp
    51ac:	0000                	unimp
    51ae:	401c                	lw	a5,0(s0)
    51b0:	0000                	unimp
    51b2:	0000                	unimp
    51b4:	0000                	unimp
    51b6:	4000                	lw	s0,0(s0)
    51b8:	0000                	unimp
    51ba:	0000                	unimp
    51bc:	0000                	unimp
    51be:	4028                	lw	a0,64(s0)
    51c0:	0000                	unimp
    51c2:	0000                	unimp
    51c4:	0000                	unimp
    51c6:	4014                	lw	a3,0(s0)
    51c8:	0000                	unimp
    51ca:	0000                	unimp
    51cc:	0000                	unimp
    51ce:	402c                	lw	a1,64(s0)
    51d0:	0000                	unimp
    51d2:	0000                	unimp
    51d4:	0000                	unimp
    51d6:	4018                	lw	a4,0(s0)
    51d8:	0000                	unimp
    51da:	0000                	unimp
    51dc:	0000                	unimp
    51de:	4028                	lw	a0,64(s0)
    51e0:	0000                	unimp
    51e2:	0000                	unimp
    51e4:	0000                	unimp
    51e6:	4000                	lw	s0,0(s0)
    51e8:	0000                	unimp
    51ea:	0000                	unimp
    51ec:	0000                	unimp
    51ee:	4030                	lw	a2,64(s0)
    51f0:	0000                	unimp
    51f2:	0000                	unimp
    51f4:	0000                	unimp
    51f6:	3ff0                	fld	fa2,248(a5)
    51f8:	0000                	unimp
    51fa:	0000                	unimp
    51fc:	0000                	unimp
    51fe:	402e                	.2byte	0x402e
    5200:	0000                	unimp
    5202:	0000                	unimp
    5204:	0000                	unimp
    5206:	401c                	lw	a5,0(s0)
    5208:	0000                	unimp
    520a:	0000                	unimp
    520c:	0000                	unimp
    520e:	4032                	.2byte	0x4032
    5210:	0000                	unimp
    5212:	0000                	unimp
    5214:	0000                	unimp
    5216:	0000                	unimp
    5218:	0000                	unimp
    521a:	0000                	unimp
    521c:	0000                	unimp
    521e:	0000                	unimp
    5220:	0000                	unimp
    5222:	0000                	unimp
    5224:	0000                	unimp
    5226:	402a                	.2byte	0x402a
    5228:	0000                	unimp
    522a:	0000                	unimp
    522c:	0000                	unimp
    522e:	402a                	.2byte	0x402a
    5230:	0000                	unimp
    5232:	0000                	unimp
    5234:	0000                	unimp
    5236:	4028                	lw	a0,64(s0)
    5238:	0000                	unimp
    523a:	0000                	unimp
    523c:	0000                	unimp
    523e:	4026                	.2byte	0x4026
    5240:	0000                	unimp
    5242:	0000                	unimp
    5244:	0000                	unimp
    5246:	4030                	lw	a2,64(s0)
    5248:	0000                	unimp
    524a:	0000                	unimp
    524c:	0000                	unimp
    524e:	402e                	.2byte	0x402e
    5250:	0000                	unimp
    5252:	0000                	unimp
    5254:	0000                	unimp
    5256:	402c                	lw	a1,64(s0)
    5258:	0000                	unimp
    525a:	0000                	unimp
    525c:	0000                	unimp
    525e:	4020                	lw	s0,64(s0)
    5260:	0000                	unimp
    5262:	0000                	unimp
    5264:	0000                	unimp
    5266:	4022                	.2byte	0x4022
    5268:	0000                	unimp
    526a:	0000                	unimp
    526c:	0000                	unimp
    526e:	4024                	lw	s1,64(s0)
    5270:	0000                	unimp
    5272:	0000                	unimp
    5274:	0000                	unimp
    5276:	4020                	lw	s0,64(s0)
    5278:	0000                	unimp
    527a:	0000                	unimp
    527c:	0000                	unimp
    527e:	4020                	lw	s0,64(s0)
    5280:	0000                	unimp
    5282:	0000                	unimp
    5284:	0000                	unimp
    5286:	402a                	.2byte	0x402a
    5288:	0000                	unimp
    528a:	0000                	unimp
    528c:	0000                	unimp
    528e:	402a                	.2byte	0x402a
    5290:	0000                	unimp
    5292:	0000                	unimp
    5294:	0000                	unimp
    5296:	402a                	.2byte	0x402a
    5298:	0000                	unimp
    529a:	0000                	unimp
    529c:	0000                	unimp
    529e:	4024                	lw	s1,64(s0)
    52a0:	0000                	unimp
    52a2:	0000                	unimp
    52a4:	0000                	unimp
    52a6:	3ff0                	fld	fa2,248(a5)
    52a8:	0000                	unimp
    52aa:	0000                	unimp
    52ac:	0000                	unimp
    52ae:	402e                	.2byte	0x402e
    52b0:	0000                	unimp
    52b2:	0000                	unimp
    52b4:	0000                	unimp
    52b6:	4010                	lw	a2,0(s0)
    52b8:	0000                	unimp
    52ba:	0000                	unimp
    52bc:	0000                	unimp
    52be:	0000                	unimp
    52c0:	0000                	unimp
    52c2:	0000                	unimp
    52c4:	0000                	unimp
    52c6:	4028                	lw	a0,64(s0)
    52c8:	0000                	unimp
    52ca:	0000                	unimp
    52cc:	0000                	unimp
    52ce:	3ff0                	fld	fa2,248(a5)
    52d0:	0000                	unimp
    52d2:	0000                	unimp
    52d4:	0000                	unimp
    52d6:	4020                	lw	s0,64(s0)
    52d8:	0000                	unimp
    52da:	0000                	unimp
    52dc:	0000                	unimp
    52de:	4028                	lw	a0,64(s0)
    52e0:	0000                	unimp
    52e2:	0000                	unimp
    52e4:	0000                	unimp
    52e6:	3ff0                	fld	fa2,248(a5)
    52e8:	0000                	unimp
    52ea:	0000                	unimp
    52ec:	0000                	unimp
    52ee:	4032                	.2byte	0x4032
    52f0:	0000                	unimp
    52f2:	0000                	unimp
    52f4:	0000                	unimp
    52f6:	4028                	lw	a0,64(s0)
    52f8:	0000                	unimp
    52fa:	0000                	unimp
    52fc:	0000                	unimp
    52fe:	4032                	.2byte	0x4032
    5300:	0000                	unimp
    5302:	0000                	unimp
    5304:	0000                	unimp
    5306:	4022                	.2byte	0x4022
    5308:	0000                	unimp
    530a:	0000                	unimp
    530c:	0000                	unimp
    530e:	3ff0                	fld	fa2,248(a5)
    5310:	0000                	unimp
    5312:	0000                	unimp
    5314:	0000                	unimp
    5316:	4026                	.2byte	0x4026
    5318:	0000                	unimp
    531a:	0000                	unimp
    531c:	0000                	unimp
    531e:	4014                	lw	a3,0(s0)
    5320:	0000                	unimp
    5322:	0000                	unimp
    5324:	0000                	unimp
    5326:	402a                	.2byte	0x402a
    5328:	0000                	unimp
    532a:	0000                	unimp
    532c:	0000                	unimp
    532e:	401c                	lw	a5,0(s0)
    5330:	0000                	unimp
    5332:	0000                	unimp
    5334:	0000                	unimp
    5336:	3ff0                	fld	fa2,248(a5)
    5338:	0000                	unimp
    533a:	0000                	unimp
    533c:	0000                	unimp
    533e:	402a                	.2byte	0x402a
    5340:	0000                	unimp
    5342:	0000                	unimp
    5344:	0000                	unimp
    5346:	4014                	lw	a3,0(s0)
    5348:	0000                	unimp
    534a:	0000                	unimp
    534c:	0000                	unimp
    534e:	4020                	lw	s0,64(s0)
    5350:	0000                	unimp
    5352:	0000                	unimp
    5354:	0000                	unimp
    5356:	4031                	c.li	zero,12
    5358:	0000                	unimp
    535a:	0000                	unimp
    535c:	0000                	unimp
    535e:	4026                	.2byte	0x4026
    5360:	0000                	unimp
    5362:	0000                	unimp
    5364:	0000                	unimp
    5366:	402a                	.2byte	0x402a
    5368:	0000                	unimp
    536a:	0000                	unimp
    536c:	0000                	unimp
    536e:	402e                	.2byte	0x402e
    5370:	0000                	unimp
    5372:	0000                	unimp
    5374:	0000                	unimp
    5376:	4022                	.2byte	0x4022
    5378:	0000                	unimp
    537a:	0000                	unimp
    537c:	0000                	unimp
    537e:	4008                	lw	a0,0(s0)
    5380:	0000                	unimp
    5382:	0000                	unimp
    5384:	0000                	unimp
    5386:	4031                	c.li	zero,12
    5388:	0000                	unimp
    538a:	0000                	unimp
    538c:	0000                	unimp
    538e:	4032                	.2byte	0x4032
    5390:	0000                	unimp
    5392:	0000                	unimp
    5394:	0000                	unimp
    5396:	4022                	.2byte	0x4022
    5398:	0000                	unimp
    539a:	0000                	unimp
    539c:	0000                	unimp
    539e:	4008                	lw	a0,0(s0)
    53a0:	0000                	unimp
    53a2:	0000                	unimp
    53a4:	0000                	unimp
    53a6:	402e                	.2byte	0x402e
    53a8:	0000                	unimp
    53aa:	0000                	unimp
    53ac:	0000                	unimp
    53ae:	4026                	.2byte	0x4026
    53b0:	0000                	unimp
