
multiply.riscv      檔案格式 elf64-littleriscv


.text.init 區段的反組譯：

0000000000000000 <_start>:
   0:	4081                	li	ra,0
   2:	4101                	li	sp,0
   4:	4181                	li	gp,0
   6:	4201                	li	tp,0
   8:	4281                	li	t0,0
   a:	4301                	li	t1,0
   c:	4381                	li	t2,0
   e:	4401                	li	s0,0
  10:	4481                	li	s1,0
  12:	4501                	li	a0,0
  14:	4581                	li	a1,0
  16:	4601                	li	a2,0
  18:	4681                	li	a3,0
  1a:	4701                	li	a4,0
  1c:	4781                	li	a5,0
  1e:	4801                	li	a6,0
  20:	4881                	li	a7,0
  22:	4901                	li	s2,0
  24:	4981                	li	s3,0
  26:	4a01                	li	s4,0
  28:	4a81                	li	s5,0
  2a:	4b01                	li	s6,0
  2c:	4b81                	li	s7,0
  2e:	4c01                	li	s8,0
  30:	4c81                	li	s9,0
  32:	4d01                	li	s10,0
  34:	4d81                	li	s11,0
  36:	4e01                	li	t3,0
  38:	4e81                	li	t4,0
  3a:	4f01                	li	t5,0
  3c:	4f81                	li	t6,0
  3e:	62f9                	lui	t0,0x1e
  40:	3002a073          	csrs	mstatus,t0
  44:	4285                	li	t0,1
  46:	02fe                	slli	t0,t0,0x1f
  48:	0002d863          	bgez	t0,58 <buflen.1+0x18>
  4c:	4505                	li	a0,1
  4e:	00001297          	auipc	t0,0x1
  52:	faa2a923          	sw	a0,-78(t0) # 1000 <tohost>
  56:	bfdd                	j	4c <buflen.1+0xc>
  58:	00000297          	auipc	t0,0x0
  5c:	09028293          	addi	t0,t0,144 # e8 <buflen.1+0xa8>
  60:	30529073          	csrw	mtvec,t0
  64:	00301073          	fscsr	zero
  68:	f0000053          	fmv.w.x	ft0,zero
  6c:	f00000d3          	fmv.w.x	ft1,zero
  70:	f0000153          	fmv.w.x	ft2,zero
  74:	f00001d3          	fmv.w.x	ft3,zero
  78:	f0000253          	fmv.w.x	ft4,zero
  7c:	f00002d3          	fmv.w.x	ft5,zero
  80:	f0000353          	fmv.w.x	ft6,zero
  84:	f00003d3          	fmv.w.x	ft7,zero
  88:	f0000453          	fmv.w.x	fs0,zero
  8c:	f00004d3          	fmv.w.x	fs1,zero
  90:	f0000553          	fmv.w.x	fa0,zero
  94:	f00005d3          	fmv.w.x	fa1,zero
  98:	f0000653          	fmv.w.x	fa2,zero
  9c:	f00006d3          	fmv.w.x	fa3,zero
  a0:	f0000753          	fmv.w.x	fa4,zero
  a4:	f00007d3          	fmv.w.x	fa5,zero
  a8:	f0000853          	fmv.w.x	fa6,zero
  ac:	f00008d3          	fmv.w.x	fa7,zero
  b0:	f0000953          	fmv.w.x	fs2,zero
  b4:	f00009d3          	fmv.w.x	fs3,zero
  b8:	f0000a53          	fmv.w.x	fs4,zero
  bc:	f0000ad3          	fmv.w.x	fs5,zero
  c0:	f0000b53          	fmv.w.x	fs6,zero
  c4:	f0000bd3          	fmv.w.x	fs7,zero
  c8:	f0000c53          	fmv.w.x	fs8,zero
  cc:	f0000cd3          	fmv.w.x	fs9,zero
  d0:	f0000d53          	fmv.w.x	fs10,zero
  d4:	f0000dd3          	fmv.w.x	fs11,zero
  d8:	f0000e53          	fmv.w.x	ft8,zero
  dc:	f0000ed3          	fmv.w.x	ft9,zero
  e0:	f0000f53          	fmv.w.x	ft10,zero
  e4:	f0000fd3          	fmv.w.x	ft11,zero
  e8:	00000297          	auipc	t0,0x0
  ec:	03828293          	addi	t0,t0,56 # 120 <trap_entry>
  f0:	30529073          	csrw	mtvec,t0
  f4:	00003197          	auipc	gp,0x3
  f8:	39418193          	addi	gp,gp,916 # 3488 <__global_pointer$>
  fc:	a3718213          	addi	tp,gp,-1481 # 2ebf <_end+0x3f>
 100:	fc027213          	andi	tp,tp,-64
 104:	f1402573          	csrr	a0,mhartid
 108:	4585                	li	a1,1
 10a:	00b57063          	bgeu	a0,a1,10a <buflen.1+0xca>
 10e:	00150113          	addi	sp,a0,1
 112:	0146                	slli	sp,sp,0x11
 114:	9112                	add	sp,sp,tp
 116:	01151613          	slli	a2,a0,0x11
 11a:	9232                	add	tp,tp,a2
 11c:	4640206f          	j	2580 <_init>

0000000000000120 <trap_entry>:
 120:	716d                	addi	sp,sp,-272
 122:	e406                	sd	ra,8(sp)
 124:	e80a                	sd	sp,16(sp)
 126:	ec0e                	sd	gp,24(sp)
 128:	f012                	sd	tp,32(sp)
 12a:	f416                	sd	t0,40(sp)
 12c:	f81a                	sd	t1,48(sp)
 12e:	fc1e                	sd	t2,56(sp)
 130:	e0a2                	sd	s0,64(sp)
 132:	e4a6                	sd	s1,72(sp)
 134:	e8aa                	sd	a0,80(sp)
 136:	ecae                	sd	a1,88(sp)
 138:	f0b2                	sd	a2,96(sp)
 13a:	f4b6                	sd	a3,104(sp)
 13c:	f8ba                	sd	a4,112(sp)
 13e:	fcbe                	sd	a5,120(sp)
 140:	e142                	sd	a6,128(sp)
 142:	e546                	sd	a7,136(sp)
 144:	e94a                	sd	s2,144(sp)
 146:	ed4e                	sd	s3,152(sp)
 148:	f152                	sd	s4,160(sp)
 14a:	f556                	sd	s5,168(sp)
 14c:	f95a                	sd	s6,176(sp)
 14e:	fd5e                	sd	s7,184(sp)
 150:	e1e2                	sd	s8,192(sp)
 152:	e5e6                	sd	s9,200(sp)
 154:	e9ea                	sd	s10,208(sp)
 156:	edee                	sd	s11,216(sp)
 158:	f1f2                	sd	t3,224(sp)
 15a:	f5f6                	sd	t4,232(sp)
 15c:	f9fa                	sd	t5,240(sp)
 15e:	fdfe                	sd	t6,248(sp)
 160:	34202573          	csrr	a0,mcause
 164:	341025f3          	csrr	a1,mepc
 168:	860a                	mv	a2,sp
 16a:	25e020ef          	jal	ra,23c8 <handle_trap>
 16e:	34151073          	csrw	mepc,a0
 172:	6289                	lui	t0,0x2
 174:	8002829b          	addiw	t0,t0,-2048 # 1800 <fromhost+0x7c0>
 178:	3002a073          	csrs	mstatus,t0
 17c:	60a2                	ld	ra,8(sp)
 17e:	6142                	ld	sp,16(sp)
 180:	61e2                	ld	gp,24(sp)
 182:	7202                	ld	tp,32(sp)
 184:	72a2                	ld	t0,40(sp)
 186:	7342                	ld	t1,48(sp)
 188:	73e2                	ld	t2,56(sp)
 18a:	6406                	ld	s0,64(sp)
 18c:	64a6                	ld	s1,72(sp)
 18e:	6546                	ld	a0,80(sp)
 190:	65e6                	ld	a1,88(sp)
 192:	7606                	ld	a2,96(sp)
 194:	76a6                	ld	a3,104(sp)
 196:	7746                	ld	a4,112(sp)
 198:	77e6                	ld	a5,120(sp)
 19a:	680a                	ld	a6,128(sp)
 19c:	68aa                	ld	a7,136(sp)
 19e:	694a                	ld	s2,144(sp)
 1a0:	69ea                	ld	s3,152(sp)
 1a2:	7a0a                	ld	s4,160(sp)
 1a4:	7aaa                	ld	s5,168(sp)
 1a6:	7b4a                	ld	s6,176(sp)
 1a8:	7bea                	ld	s7,184(sp)
 1aa:	6c0e                	ld	s8,192(sp)
 1ac:	6cae                	ld	s9,200(sp)
 1ae:	6d4e                	ld	s10,208(sp)
 1b0:	6dee                	ld	s11,216(sp)
 1b2:	7e0e                	ld	t3,224(sp)
 1b4:	7eae                	ld	t4,232(sp)
 1b6:	7f4e                	ld	t5,240(sp)
 1b8:	7fee                	ld	t6,248(sp)
 1ba:	6151                	addi	sp,sp,272
 1bc:	30200073          	mret
 1c0:	0000                	unimp

.text 區段的反組譯：

0000000000002000 <multiply>:
    2000:	872a                	mv	a4,a0
    2002:	02000693          	li	a3,32
    2006:	4501                	li	a0,0
    2008:	00177793          	andi	a5,a4,1
    200c:	0015961b          	slliw	a2,a1,0x1
    2010:	36fd                	addiw	a3,a3,-1
    2012:	c391                	beqz	a5,2016 <multiply+0x16>
    2014:	9d2d                	addw	a0,a0,a1
    2016:	8705                	srai	a4,a4,0x1
    2018:	0006059b          	sext.w	a1,a2
    201c:	f6f5                	bnez	a3,2008 <multiply+0x8>
    201e:	8082                	ret

0000000000002020 <vprintfmt>:
    2020:	7149                	addi	sp,sp,-368
    2022:	f2a2                	sd	s0,352(sp)
    2024:	eea6                	sd	s1,344(sp)
    2026:	eaca                	sd	s2,336(sp)
    2028:	e2d2                	sd	s4,320(sp)
    202a:	fe56                	sd	s5,312(sp)
    202c:	fa5a                	sd	s6,304(sp)
    202e:	f65e                	sd	s7,296(sp)
    2030:	f686                	sd	ra,360(sp)
    2032:	e6ce                	sd	s3,328(sp)
    2034:	f262                	sd	s8,288(sp)
    2036:	ee66                	sd	s9,280(sp)
    2038:	ea6a                	sd	s10,272(sp)
    203a:	e66e                	sd	s11,264(sp)
    203c:	892a                	mv	s2,a0
    203e:	84ae                	mv	s1,a1
    2040:	8432                	mv	s0,a2
    2042:	8ab6                	mv	s5,a3
    2044:	02500a13          	li	s4,37
    2048:	05500b93          	li	s7,85
    204c:	84c18b13          	addi	s6,gp,-1972 # 2cd4 <verify_data+0x1dc>
    2050:	a029                	j	205a <vprintfmt+0x3a>
    2052:	cd1d                	beqz	a0,2090 <vprintfmt+0x70>
    2054:	85a6                	mv	a1,s1
    2056:	0405                	addi	s0,s0,1
    2058:	9902                	jalr	s2
    205a:	00044503          	lbu	a0,0(s0)
    205e:	ff451ae3          	bne	a0,s4,2052 <vprintfmt+0x32>
    2062:	00144683          	lbu	a3,1(s0)
    2066:	00140993          	addi	s3,s0,1
    206a:	874e                	mv	a4,s3
    206c:	02000c93          	li	s9,32
    2070:	5c7d                	li	s8,-1
    2072:	5dfd                	li	s11,-1
    2074:	4601                	li	a2,0
    2076:	fdd6879b          	addiw	a5,a3,-35
    207a:	0ff7f793          	zext.b	a5,a5
    207e:	00170413          	addi	s0,a4,1
    2082:	04fbe263          	bltu	s7,a5,20c6 <vprintfmt+0xa6>
    2086:	078a                	slli	a5,a5,0x2
    2088:	97da                	add	a5,a5,s6
    208a:	439c                	lw	a5,0(a5)
    208c:	97da                	add	a5,a5,s6
    208e:	8782                	jr	a5
    2090:	70b6                	ld	ra,360(sp)
    2092:	7416                	ld	s0,352(sp)
    2094:	64f6                	ld	s1,344(sp)
    2096:	6956                	ld	s2,336(sp)
    2098:	69b6                	ld	s3,328(sp)
    209a:	6a16                	ld	s4,320(sp)
    209c:	7af2                	ld	s5,312(sp)
    209e:	7b52                	ld	s6,304(sp)
    20a0:	7bb2                	ld	s7,296(sp)
    20a2:	7c12                	ld	s8,288(sp)
    20a4:	6cf2                	ld	s9,280(sp)
    20a6:	6d52                	ld	s10,272(sp)
    20a8:	6db2                	ld	s11,264(sp)
    20aa:	6175                	addi	sp,sp,368
    20ac:	8082                	ret
    20ae:	8cb6                	mv	s9,a3
    20b0:	00174683          	lbu	a3,1(a4)
    20b4:	8722                	mv	a4,s0
    20b6:	00170413          	addi	s0,a4,1
    20ba:	fdd6879b          	addiw	a5,a3,-35
    20be:	0ff7f793          	zext.b	a5,a5
    20c2:	fcfbf2e3          	bgeu	s7,a5,2086 <vprintfmt+0x66>
    20c6:	85a6                	mv	a1,s1
    20c8:	02500513          	li	a0,37
    20cc:	9902                	jalr	s2
    20ce:	844e                	mv	s0,s3
    20d0:	b769                	j	205a <vprintfmt+0x3a>
    20d2:	fd068c1b          	addiw	s8,a3,-48
    20d6:	00174683          	lbu	a3,1(a4)
    20da:	47a5                	li	a5,9
    20dc:	fd06871b          	addiw	a4,a3,-48
    20e0:	0006859b          	sext.w	a1,a3
    20e4:	20e7e863          	bltu	a5,a4,22f4 <vprintfmt+0x2d4>
    20e8:	8722                	mv	a4,s0
    20ea:	4825                	li	a6,9
    20ec:	00174683          	lbu	a3,1(a4)
    20f0:	002c179b          	slliw	a5,s8,0x2
    20f4:	018787bb          	addw	a5,a5,s8
    20f8:	0017979b          	slliw	a5,a5,0x1
    20fc:	9fad                	addw	a5,a5,a1
    20fe:	fd06851b          	addiw	a0,a3,-48
    2102:	0705                	addi	a4,a4,1
    2104:	fd078c1b          	addiw	s8,a5,-48
    2108:	0006859b          	sext.w	a1,a3
    210c:	fea870e3          	bgeu	a6,a0,20ec <vprintfmt+0xcc>
    2110:	f60dd3e3          	bgez	s11,2076 <vprintfmt+0x56>
    2114:	8de2                	mv	s11,s8
    2116:	5c7d                	li	s8,-1
    2118:	bfb9                	j	2076 <vprintfmt+0x56>
    211a:	00174683          	lbu	a3,1(a4)
    211e:	8722                	mv	a4,s0
    2120:	bf99                	j	2076 <vprintfmt+0x56>
    2122:	85a6                	mv	a1,s1
    2124:	02500513          	li	a0,37
    2128:	9902                	jalr	s2
    212a:	bf05                	j	205a <vprintfmt+0x3a>
    212c:	000aac03          	lw	s8,0(s5)
    2130:	00174683          	lbu	a3,1(a4)
    2134:	0aa1                	addi	s5,s5,8
    2136:	8722                	mv	a4,s0
    2138:	bfe1                	j	2110 <vprintfmt+0xf0>
    213a:	03000513          	li	a0,48
    213e:	85a6                	mv	a1,s1
    2140:	9902                	jalr	s2
    2142:	85a6                	mv	a1,s1
    2144:	07800513          	li	a0,120
    2148:	9902                	jalr	s2
    214a:	46c1                	li	a3,16
    214c:	008a8713          	addi	a4,s5,8
    2150:	000ab783          	ld	a5,0(s5)
    2154:	8aba                	mv	s5,a4
    2156:	02d7f5b3          	remu	a1,a5,a3
    215a:	000c899b          	sext.w	s3,s9
    215e:	0050                	addi	a2,sp,4
    2160:	4705                	li	a4,1
    2162:	c02e                	sw	a1,0(sp)
    2164:	16d7e663          	bltu	a5,a3,22d0 <vprintfmt+0x2b0>
    2168:	02d7d7b3          	divu	a5,a5,a3
    216c:	0611                	addi	a2,a2,4
    216e:	8c3a                	mv	s8,a4
    2170:	2705                	addiw	a4,a4,1
    2172:	02d7f5b3          	remu	a1,a5,a3
    2176:	feb62e23          	sw	a1,-4(a2)
    217a:	fed7f7e3          	bgeu	a5,a3,2168 <vprintfmt+0x148>
    217e:	fffd8c9b          	addiw	s9,s11,-1
    2182:	fff70d1b          	addiw	s10,a4,-1
    2186:	01b75863          	bge	a4,s11,2196 <vprintfmt+0x176>
    218a:	3cfd                	addiw	s9,s9,-1
    218c:	85a6                	mv	a1,s1
    218e:	854e                	mv	a0,s3
    2190:	9902                	jalr	s2
    2192:	ffac9ce3          	bne	s9,s10,218a <vprintfmt+0x16a>
    2196:	0c0a                	slli	s8,s8,0x2
    2198:	018109b3          	add	s3,sp,s8
    219c:	ffc10c93          	addi	s9,sp,-4
    21a0:	4c25                	li	s8,9
    21a2:	0009a783          	lw	a5,0(s3)
    21a6:	05700513          	li	a0,87
    21aa:	00fc6463          	bltu	s8,a5,21b2 <vprintfmt+0x192>
    21ae:	03000513          	li	a0,48
    21b2:	19f1                	addi	s3,s3,-4
    21b4:	85a6                	mv	a1,s1
    21b6:	9d3d                	addw	a0,a0,a5
    21b8:	9902                	jalr	s2
    21ba:	ff3c94e3          	bne	s9,s3,21a2 <vprintfmt+0x182>
    21be:	bd71                	j	205a <vprintfmt+0x3a>
    21c0:	4785                	li	a5,1
    21c2:	008a8c13          	addi	s8,s5,8
    21c6:	00c7c463          	blt	a5,a2,21ce <vprintfmt+0x1ae>
    21ca:	10060563          	beqz	a2,22d4 <vprintfmt+0x2b4>
    21ce:	000ab983          	ld	s3,0(s5)
    21d2:	1009c863          	bltz	s3,22e2 <vprintfmt+0x2c2>
    21d6:	87ce                	mv	a5,s3
    21d8:	8ae2                	mv	s5,s8
    21da:	46a9                	li	a3,10
    21dc:	bfad                	j	2156 <vprintfmt+0x136>
    21de:	00174683          	lbu	a3,1(a4)
    21e2:	2605                	addiw	a2,a2,1
    21e4:	8722                	mv	a4,s0
    21e6:	bd41                	j	2076 <vprintfmt+0x56>
    21e8:	46c1                	li	a3,16
    21ea:	4785                	li	a5,1
    21ec:	008a8713          	addi	a4,s5,8
    21f0:	f6c7c0e3          	blt	a5,a2,2150 <vprintfmt+0x130>
    21f4:	fe31                	bnez	a2,2150 <vprintfmt+0x130>
    21f6:	000ae783          	lwu	a5,0(s5)
    21fa:	8aba                	mv	s5,a4
    21fc:	bfa9                	j	2156 <vprintfmt+0x136>
    21fe:	000abd03          	ld	s10,0(s5)
    2202:	0aa1                	addi	s5,s5,8
    2204:	040d0263          	beqz	s10,2248 <vprintfmt+0x228>
    2208:	09b05d63          	blez	s11,22a2 <vprintfmt+0x282>
    220c:	02d00793          	li	a5,45
    2210:	04fc9e63          	bne	s9,a5,226c <vprintfmt+0x24c>
    2214:	000d4503          	lbu	a0,0(s10)
    2218:	c105                	beqz	a0,2238 <vprintfmt+0x218>
    221a:	59fd                	li	s3,-1
    221c:	000c4563          	bltz	s8,2226 <vprintfmt+0x206>
    2220:	3c7d                	addiw	s8,s8,-1
    2222:	013c0963          	beq	s8,s3,2234 <vprintfmt+0x214>
    2226:	85a6                	mv	a1,s1
    2228:	0d05                	addi	s10,s10,1
    222a:	9902                	jalr	s2
    222c:	000d4503          	lbu	a0,0(s10)
    2230:	3dfd                	addiw	s11,s11,-1
    2232:	f56d                	bnez	a0,221c <vprintfmt+0x1fc>
    2234:	e3b053e3          	blez	s11,205a <vprintfmt+0x3a>
    2238:	3dfd                	addiw	s11,s11,-1
    223a:	85a6                	mv	a1,s1
    223c:	02000513          	li	a0,32
    2240:	9902                	jalr	s2
    2242:	fe0d9be3          	bnez	s11,2238 <vprintfmt+0x218>
    2246:	bd11                	j	205a <vprintfmt+0x3a>
    2248:	00001d17          	auipc	s10,0x1
    224c:	a48d0d13          	addi	s10,s10,-1464 # 2c90 <verify_data+0x198>
    2250:	02800513          	li	a0,40
    2254:	fdb053e3          	blez	s11,221a <vprintfmt+0x1fa>
    2258:	02d00793          	li	a5,45
    225c:	00001d17          	auipc	s10,0x1
    2260:	a34d0d13          	addi	s10,s10,-1484 # 2c90 <verify_data+0x198>
    2264:	02800513          	li	a0,40
    2268:	fafc89e3          	beq	s9,a5,221a <vprintfmt+0x1fa>
    226c:	000d861b          	sext.w	a2,s11
    2270:	87ea                	mv	a5,s10
    2272:	018d06b3          	add	a3,s10,s8
    2276:	000c1663          	bnez	s8,2282 <vprintfmt+0x262>
    227a:	a829                	j	2294 <vprintfmt+0x274>
    227c:	0785                	addi	a5,a5,1
    227e:	00d78563          	beq	a5,a3,2288 <vprintfmt+0x268>
    2282:	0007c703          	lbu	a4,0(a5)
    2286:	fb7d                	bnez	a4,227c <vprintfmt+0x25c>
    2288:	41a787b3          	sub	a5,a5,s10
    228c:	40f60dbb          	subw	s11,a2,a5
    2290:	01b05963          	blez	s11,22a2 <vprintfmt+0x282>
    2294:	2c81                	sext.w	s9,s9
    2296:	3dfd                	addiw	s11,s11,-1
    2298:	85a6                	mv	a1,s1
    229a:	8566                	mv	a0,s9
    229c:	9902                	jalr	s2
    229e:	fe0d9ce3          	bnez	s11,2296 <vprintfmt+0x276>
    22a2:	000d4503          	lbu	a0,0(s10)
    22a6:	da050ae3          	beqz	a0,205a <vprintfmt+0x3a>
    22aa:	59fd                	li	s3,-1
    22ac:	bf85                	j	221c <vprintfmt+0x1fc>
    22ae:	fffdc793          	not	a5,s11
    22b2:	97fd                	srai	a5,a5,0x3f
    22b4:	00fdf7b3          	and	a5,s11,a5
    22b8:	00174683          	lbu	a3,1(a4)
    22bc:	00078d9b          	sext.w	s11,a5
    22c0:	8722                	mv	a4,s0
    22c2:	bb55                	j	2076 <vprintfmt+0x56>
    22c4:	000aa503          	lw	a0,0(s5)
    22c8:	85a6                	mv	a1,s1
    22ca:	0aa1                	addi	s5,s5,8
    22cc:	9902                	jalr	s2
    22ce:	b371                	j	205a <vprintfmt+0x3a>
    22d0:	4c01                	li	s8,0
    22d2:	b575                	j	217e <vprintfmt+0x15e>
    22d4:	000aa983          	lw	s3,0(s5)
    22d8:	bded                	j	21d2 <vprintfmt+0x1b2>
    22da:	46a9                	li	a3,10
    22dc:	b739                	j	21ea <vprintfmt+0x1ca>
    22de:	46a1                	li	a3,8
    22e0:	b729                	j	21ea <vprintfmt+0x1ca>
    22e2:	85a6                	mv	a1,s1
    22e4:	02d00513          	li	a0,45
    22e8:	9902                	jalr	s2
    22ea:	8ae2                	mv	s5,s8
    22ec:	413007b3          	neg	a5,s3
    22f0:	46a9                	li	a3,10
    22f2:	b595                	j	2156 <vprintfmt+0x136>
    22f4:	8722                	mv	a4,s0
    22f6:	bd29                	j	2110 <vprintfmt+0xf0>

00000000000022f8 <sprintf_putch.0>:
    22f8:	619c                	ld	a5,0(a1)
    22fa:	00a78023          	sb	a0,0(a5)
    22fe:	619c                	ld	a5,0(a1)
    2300:	0785                	addi	a5,a5,1
    2302:	e19c                	sd	a5,0(a1)
    2304:	8082                	ret

0000000000002306 <putchar>:
    2306:	04022803          	lw	a6,64(tp) # 40 <buflen.1>
    230a:	00020793          	mv	a5,tp
    230e:	97c2                	add	a5,a5,a6
    2310:	7159                	addi	sp,sp,-112
    2312:	0018069b          	addiw	a3,a6,1
    2316:	04d22023          	sw	a3,64(tp) # 40 <buflen.1>
    231a:	00a78023          	sb	a0,0(a5)
    231e:	03f10713          	addi	a4,sp,63
    2322:	47a9                	li	a5,10
    2324:	fc077713          	andi	a4,a4,-64
    2328:	00f50963          	beq	a0,a5,233a <putchar+0x34>
    232c:	04000793          	li	a5,64
    2330:	00f68563          	beq	a3,a5,233a <putchar+0x34>
    2334:	4501                	li	a0,0
    2336:	6165                	addi	sp,sp,112
    2338:	8082                	ret
    233a:	04000793          	li	a5,64
    233e:	e31c                	sd	a5,0(a4)
    2340:	4785                	li	a5,1
    2342:	e71c                	sd	a5,8(a4)
    2344:	00020613          	mv	a2,tp
    2348:	eb10                	sd	a2,16(a4)
    234a:	ef14                	sd	a3,24(a4)
    234c:	0ff0000f          	fence
    2350:	fffff697          	auipc	a3,0xfffff
    2354:	cf068693          	addi	a3,a3,-784 # 1040 <fromhost>
    2358:	fffff797          	auipc	a5,0xfffff
    235c:	cae7b423          	sd	a4,-856(a5) # 1000 <tohost>
    2360:	629c                	ld	a5,0(a3)
    2362:	dffd                	beqz	a5,2360 <putchar+0x5a>
    2364:	fffff797          	auipc	a5,0xfffff
    2368:	cc07be23          	sd	zero,-804(a5) # 1040 <fromhost>
    236c:	0ff0000f          	fence
    2370:	04022023          	sw	zero,64(tp) # 40 <buflen.1>
    2374:	631c                	ld	a5,0(a4)
    2376:	4501                	li	a0,0
    2378:	6165                	addi	sp,sp,112
    237a:	8082                	ret

000000000000237c <setStats>:
    237c:	b0002773          	csrr	a4,mcycle
    2380:	9a818793          	addi	a5,gp,-1624 # 2e30 <counters>
    2384:	c511                	beqz	a0,2390 <setStats+0x14>
    2386:	e398                	sd	a4,0(a5)
    2388:	b0202773          	csrr	a4,minstret
    238c:	e798                	sd	a4,8(a5)
    238e:	8082                	ret
    2390:	6394                	ld	a3,0(a5)
    2392:	00001617          	auipc	a2,0x1
    2396:	90660613          	addi	a2,a2,-1786 # 2c98 <verify_data+0x1a0>
    239a:	eb90                	sd	a2,16(a5)
    239c:	8f15                	sub	a4,a4,a3
    239e:	e398                	sd	a4,0(a5)
    23a0:	b0202773          	csrr	a4,minstret
    23a4:	6794                	ld	a3,8(a5)
    23a6:	00001617          	auipc	a2,0x1
    23aa:	8fa60613          	addi	a2,a2,-1798 # 2ca0 <verify_data+0x1a8>
    23ae:	ef90                	sd	a2,24(a5)
    23b0:	8f15                	sub	a4,a4,a3
    23b2:	e798                	sd	a4,8(a5)
    23b4:	8082                	ret

00000000000023b6 <tohost_exit>:
    23b6:	00151793          	slli	a5,a0,0x1
    23ba:	0017e793          	ori	a5,a5,1
    23be:	fffff717          	auipc	a4,0xfffff
    23c2:	c4f73123          	sd	a5,-958(a4) # 1000 <tohost>
    23c6:	a001                	j	23c6 <tohost_exit+0x10>

00000000000023c8 <handle_trap>:
    23c8:	6785                	lui	a5,0x1
    23ca:	a7378793          	addi	a5,a5,-1421 # a73 <trap_entry+0x953>
    23ce:	fffff717          	auipc	a4,0xfffff
    23d2:	c2f73923          	sd	a5,-974(a4) # 1000 <tohost>
    23d6:	a001                	j	23d6 <handle_trap+0xe>

00000000000023d8 <exit>:
    23d8:	1141                	addi	sp,sp,-16
    23da:	e406                	sd	ra,8(sp)
    23dc:	fdbff0ef          	jal	ra,23b6 <tohost_exit>

00000000000023e0 <abort>:
    23e0:	10d00793          	li	a5,269
    23e4:	fffff717          	auipc	a4,0xfffff
    23e8:	c0f73e23          	sd	a5,-996(a4) # 1000 <tohost>
    23ec:	a001                	j	23ec <abort+0xc>

00000000000023ee <printstr>:
    23ee:	00054783          	lbu	a5,0(a0)
    23f2:	7159                	addi	sp,sp,-112
    23f4:	03f10693          	addi	a3,sp,63
    23f8:	fc06f693          	andi	a3,a3,-64
    23fc:	c3b9                	beqz	a5,2442 <printstr+0x54>
    23fe:	87aa                	mv	a5,a0
    2400:	0017c703          	lbu	a4,1(a5)
    2404:	0785                	addi	a5,a5,1
    2406:	ff6d                	bnez	a4,2400 <printstr+0x12>
    2408:	8f89                	sub	a5,a5,a0
    240a:	04000713          	li	a4,64
    240e:	e298                	sd	a4,0(a3)
    2410:	4705                	li	a4,1
    2412:	e698                	sd	a4,8(a3)
    2414:	ea88                	sd	a0,16(a3)
    2416:	ee9c                	sd	a5,24(a3)
    2418:	0ff0000f          	fence
    241c:	fffff717          	auipc	a4,0xfffff
    2420:	c2470713          	addi	a4,a4,-988 # 1040 <fromhost>
    2424:	fffff797          	auipc	a5,0xfffff
    2428:	bcd7be23          	sd	a3,-1060(a5) # 1000 <tohost>
    242c:	631c                	ld	a5,0(a4)
    242e:	dffd                	beqz	a5,242c <printstr+0x3e>
    2430:	fffff797          	auipc	a5,0xfffff
    2434:	c007b823          	sd	zero,-1008(a5) # 1040 <fromhost>
    2438:	0ff0000f          	fence
    243c:	629c                	ld	a5,0(a3)
    243e:	6165                	addi	sp,sp,112
    2440:	8082                	ret
    2442:	4781                	li	a5,0
    2444:	b7d9                	j	240a <printstr+0x1c>

0000000000002446 <thread_entry>:
    2446:	e101                	bnez	a0,2446 <thread_entry>
    2448:	8082                	ret

000000000000244a <printhex>:
    244a:	7179                	addi	sp,sp,-48
    244c:	87aa                	mv	a5,a0
    244e:	f406                	sd	ra,40(sp)
    2450:	0028                	addi	a0,sp,8
    2452:	01710713          	addi	a4,sp,23
    2456:	4825                	li	a6,9
    2458:	a011                	j	245c <printhex+0x12>
    245a:	8736                	mv	a4,a3
    245c:	00f7f613          	andi	a2,a5,15
    2460:	86b2                	mv	a3,a2
    2462:	05700593          	li	a1,87
    2466:	00c86463          	bltu	a6,a2,246e <printhex+0x24>
    246a:	03000593          	li	a1,48
    246e:	9ead                	addw	a3,a3,a1
    2470:	00d70023          	sb	a3,0(a4)
    2474:	8391                	srli	a5,a5,0x4
    2476:	fff70693          	addi	a3,a4,-1
    247a:	fee510e3          	bne	a0,a4,245a <printhex+0x10>
    247e:	00010c23          	sb	zero,24(sp)
    2482:	f6dff0ef          	jal	ra,23ee <printstr>
    2486:	70a2                	ld	ra,40(sp)
    2488:	6145                	addi	sp,sp,48
    248a:	8082                	ret

000000000000248c <printf>:
    248c:	711d                	addi	sp,sp,-96
    248e:	02810313          	addi	t1,sp,40
    2492:	8e2a                	mv	t3,a0
    2494:	f42e                	sd	a1,40(sp)
    2496:	f832                	sd	a2,48(sp)
    2498:	fc36                	sd	a3,56(sp)
    249a:	00000517          	auipc	a0,0x0
    249e:	e6c50513          	addi	a0,a0,-404 # 2306 <putchar>
    24a2:	869a                	mv	a3,t1
    24a4:	8672                	mv	a2,t3
    24a6:	4581                	li	a1,0
    24a8:	ec06                	sd	ra,24(sp)
    24aa:	e0ba                	sd	a4,64(sp)
    24ac:	e4be                	sd	a5,72(sp)
    24ae:	e8c2                	sd	a6,80(sp)
    24b0:	ecc6                	sd	a7,88(sp)
    24b2:	e41a                	sd	t1,8(sp)
    24b4:	b6dff0ef          	jal	ra,2020 <vprintfmt>
    24b8:	60e2                	ld	ra,24(sp)
    24ba:	4501                	li	a0,0
    24bc:	6125                	addi	sp,sp,96
    24be:	8082                	ret

00000000000024c0 <sprintf>:
    24c0:	711d                	addi	sp,sp,-96
    24c2:	03010313          	addi	t1,sp,48
    24c6:	f022                	sd	s0,32(sp)
    24c8:	e42a                	sd	a0,8(sp)
    24ca:	f832                	sd	a2,48(sp)
    24cc:	fc36                	sd	a3,56(sp)
    24ce:	842a                	mv	s0,a0
    24d0:	862e                	mv	a2,a1
    24d2:	00000517          	auipc	a0,0x0
    24d6:	e2650513          	addi	a0,a0,-474 # 22f8 <sprintf_putch.0>
    24da:	002c                	addi	a1,sp,8
    24dc:	869a                	mv	a3,t1
    24de:	f406                	sd	ra,40(sp)
    24e0:	e4be                	sd	a5,72(sp)
    24e2:	e0ba                	sd	a4,64(sp)
    24e4:	e8c2                	sd	a6,80(sp)
    24e6:	ecc6                	sd	a7,88(sp)
    24e8:	ec1a                	sd	t1,24(sp)
    24ea:	b37ff0ef          	jal	ra,2020 <vprintfmt>
    24ee:	67a2                	ld	a5,8(sp)
    24f0:	00078023          	sb	zero,0(a5)
    24f4:	6522                	ld	a0,8(sp)
    24f6:	70a2                	ld	ra,40(sp)
    24f8:	9d01                	subw	a0,a0,s0
    24fa:	7402                	ld	s0,32(sp)
    24fc:	6125                	addi	sp,sp,96
    24fe:	8082                	ret

0000000000002500 <memcpy>:
    2500:	00b567b3          	or	a5,a0,a1
    2504:	8fd1                	or	a5,a5,a2
    2506:	8b9d                	andi	a5,a5,7
    2508:	00c506b3          	add	a3,a0,a2
    250c:	cf91                	beqz	a5,2528 <memcpy+0x28>
    250e:	962e                	add	a2,a2,a1
    2510:	87aa                	mv	a5,a0
    2512:	02d57663          	bgeu	a0,a3,253e <memcpy+0x3e>
    2516:	0005c703          	lbu	a4,0(a1)
    251a:	0585                	addi	a1,a1,1
    251c:	0785                	addi	a5,a5,1
    251e:	fee78fa3          	sb	a4,-1(a5)
    2522:	feb61ae3          	bne	a2,a1,2516 <memcpy+0x16>
    2526:	8082                	ret
    2528:	fed57fe3          	bgeu	a0,a3,2526 <memcpy+0x26>
    252c:	87aa                	mv	a5,a0
    252e:	6198                	ld	a4,0(a1)
    2530:	07a1                	addi	a5,a5,8
    2532:	05a1                	addi	a1,a1,8
    2534:	fee7bc23          	sd	a4,-8(a5)
    2538:	fed7ebe3          	bltu	a5,a3,252e <memcpy+0x2e>
    253c:	8082                	ret
    253e:	8082                	ret

0000000000002540 <memset>:
    2540:	00c567b3          	or	a5,a0,a2
    2544:	8b9d                	andi	a5,a5,7
    2546:	962a                	add	a2,a2,a0
    2548:	0ff5f713          	zext.b	a4,a1
    254c:	cb91                	beqz	a5,2560 <memset+0x20>
    254e:	87aa                	mv	a5,a0
    2550:	02c57763          	bgeu	a0,a2,257e <memset+0x3e>
    2554:	0785                	addi	a5,a5,1
    2556:	fee78fa3          	sb	a4,-1(a5)
    255a:	fec79de3          	bne	a5,a2,2554 <memset+0x14>
    255e:	8082                	ret
    2560:	00000797          	auipc	a5,0x0
    2564:	7287b783          	ld	a5,1832(a5) # 2c88 <verify_data+0x190>
    2568:	02f70733          	mul	a4,a4,a5
    256c:	fec579e3          	bgeu	a0,a2,255e <memset+0x1e>
    2570:	87aa                	mv	a5,a0
    2572:	07a1                	addi	a5,a5,8
    2574:	fee7bc23          	sd	a4,-8(a5)
    2578:	fec7ede3          	bltu	a5,a2,2572 <memset+0x32>
    257c:	8082                	ret
    257e:	8082                	ret

0000000000002580 <_init>:
    2580:	7171                	addi	sp,sp,-176
    2582:	9c818793          	addi	a5,gp,-1592 # 2e50 <_tdata_begin>
    2586:	e152                	sd	s4,128(sp)
    2588:	9c818a13          	addi	s4,gp,-1592 # 2e50 <_tdata_begin>
    258c:	e54e                	sd	s3,136(sp)
    258e:	40fa09b3          	sub	s3,s4,a5
    2592:	ed26                	sd	s1,152(sp)
    2594:	e94a                	sd	s2,144(sp)
    2596:	84aa                	mv	s1,a0
    2598:	892e                	mv	s2,a1
    259a:	8512                	mv	a0,tp
    259c:	85be                	mv	a1,a5
    259e:	864e                	mv	a2,s3
    25a0:	f506                	sd	ra,168(sp)
    25a2:	f122                	sd	s0,160(sp)
    25a4:	fcd6                	sd	s5,120(sp)
    25a6:	8a92                	mv	s5,tp
    25a8:	f59ff0ef          	jal	ra,2500 <memcpy>
    25ac:	a3c18613          	addi	a2,gp,-1476 # 2ec4 <_tbss_end>
    25b0:	41460633          	sub	a2,a2,s4
    25b4:	4581                	li	a1,0
    25b6:	013a8533          	add	a0,s5,s3
    25ba:	f87ff0ef          	jal	ra,2540 <memset>
    25be:	85ca                	mv	a1,s2
    25c0:	8526                	mv	a0,s1
    25c2:	e85ff0ef          	jal	ra,2446 <thread_entry>
    25c6:	4581                	li	a1,0
    25c8:	4501                	li	a0,0
    25ca:	142000ef          	jal	ra,270c <main>
    25ce:	9a818913          	addi	s2,gp,-1624 # 2e30 <counters>
    25d2:	00093683          	ld	a3,0(s2)
    25d6:	03f10413          	addi	s0,sp,63
    25da:	fc047413          	andi	s0,s0,-64
    25de:	84aa                	mv	s1,a0
    25e0:	ea85                	bnez	a3,2610 <_init+0x90>
    25e2:	00893683          	ld	a3,8(s2)
    25e6:	e681                	bnez	a3,25ee <_init+0x6e>
    25e8:	8526                	mv	a0,s1
    25ea:	dcdff0ef          	jal	ra,23b6 <tohost_exit>
    25ee:	89a2                	mv	s3,s0
    25f0:	01893603          	ld	a2,24(s2)
    25f4:	854e                	mv	a0,s3
    25f6:	00000597          	auipc	a1,0x0
    25fa:	6d258593          	addi	a1,a1,1746 # 2cc8 <verify_data+0x1d0>
    25fe:	ec3ff0ef          	jal	ra,24c0 <sprintf>
    2602:	99aa                	add	s3,s3,a0
    2604:	ff3402e3          	beq	s0,s3,25e8 <_init+0x68>
    2608:	8522                	mv	a0,s0
    260a:	de5ff0ef          	jal	ra,23ee <printstr>
    260e:	bfe9                	j	25e8 <_init+0x68>
    2610:	01093603          	ld	a2,16(s2)
    2614:	00000597          	auipc	a1,0x0
    2618:	6b458593          	addi	a1,a1,1716 # 2cc8 <verify_data+0x1d0>
    261c:	8522                	mv	a0,s0
    261e:	ea3ff0ef          	jal	ra,24c0 <sprintf>
    2622:	00893683          	ld	a3,8(s2)
    2626:	00a409b3          	add	s3,s0,a0
    262a:	dee9                	beqz	a3,2604 <_init+0x84>
    262c:	b7d1                	j	25f0 <_init+0x70>

000000000000262e <strlen>:
    262e:	00054783          	lbu	a5,0(a0)
    2632:	cb89                	beqz	a5,2644 <strlen+0x16>
    2634:	87aa                	mv	a5,a0
    2636:	0017c703          	lbu	a4,1(a5)
    263a:	0785                	addi	a5,a5,1
    263c:	ff6d                	bnez	a4,2636 <strlen+0x8>
    263e:	40a78533          	sub	a0,a5,a0
    2642:	8082                	ret
    2644:	4501                	li	a0,0
    2646:	8082                	ret

0000000000002648 <strnlen>:
    2648:	00b506b3          	add	a3,a0,a1
    264c:	87aa                	mv	a5,a0
    264e:	e589                	bnez	a1,2658 <strnlen+0x10>
    2650:	a829                	j	266a <strnlen+0x22>
    2652:	0785                	addi	a5,a5,1
    2654:	00f68863          	beq	a3,a5,2664 <strnlen+0x1c>
    2658:	0007c703          	lbu	a4,0(a5)
    265c:	fb7d                	bnez	a4,2652 <strnlen+0xa>
    265e:	40a78533          	sub	a0,a5,a0
    2662:	8082                	ret
    2664:	40a68533          	sub	a0,a3,a0
    2668:	8082                	ret
    266a:	4501                	li	a0,0
    266c:	8082                	ret

000000000000266e <strcmp>:
    266e:	00054783          	lbu	a5,0(a0)
    2672:	0585                	addi	a1,a1,1
    2674:	0505                	addi	a0,a0,1
    2676:	fff5c703          	lbu	a4,-1(a1)
    267a:	c799                	beqz	a5,2688 <strcmp+0x1a>
    267c:	fee789e3          	beq	a5,a4,266e <strcmp>
    2680:	0007851b          	sext.w	a0,a5
    2684:	9d19                	subw	a0,a0,a4
    2686:	8082                	ret
    2688:	4501                	li	a0,0
    268a:	bfed                	j	2684 <strcmp+0x16>

000000000000268c <strcpy>:
    268c:	87aa                	mv	a5,a0
    268e:	0005c703          	lbu	a4,0(a1)
    2692:	0785                	addi	a5,a5,1
    2694:	0585                	addi	a1,a1,1
    2696:	fee78fa3          	sb	a4,-1(a5)
    269a:	fb75                	bnez	a4,268e <strcpy+0x2>
    269c:	8082                	ret

000000000000269e <atol>:
    269e:	00054703          	lbu	a4,0(a0)
    26a2:	02000693          	li	a3,32
    26a6:	87aa                	mv	a5,a0
    26a8:	00d71763          	bne	a4,a3,26b6 <atol+0x18>
    26ac:	0017c703          	lbu	a4,1(a5)
    26b0:	0785                	addi	a5,a5,1
    26b2:	fed70de3          	beq	a4,a3,26ac <atol+0xe>
    26b6:	02d00693          	li	a3,45
    26ba:	04d70263          	beq	a4,a3,26fe <atol+0x60>
    26be:	02b00693          	li	a3,43
    26c2:	02d70763          	beq	a4,a3,26f0 <atol+0x52>
    26c6:	0007c683          	lbu	a3,0(a5)
    26ca:	4581                	li	a1,0
    26cc:	c69d                	beqz	a3,26fa <atol+0x5c>
    26ce:	4501                	li	a0,0
    26d0:	0785                	addi	a5,a5,1
    26d2:	00251713          	slli	a4,a0,0x2
    26d6:	fd06861b          	addiw	a2,a3,-48
    26da:	0007c683          	lbu	a3,0(a5)
    26de:	972a                	add	a4,a4,a0
    26e0:	0706                	slli	a4,a4,0x1
    26e2:	00e60533          	add	a0,a2,a4
    26e6:	f6ed                	bnez	a3,26d0 <atol+0x32>
    26e8:	c991                	beqz	a1,26fc <atol+0x5e>
    26ea:	40a00533          	neg	a0,a0
    26ee:	8082                	ret
    26f0:	0017c683          	lbu	a3,1(a5)
    26f4:	4581                	li	a1,0
    26f6:	0785                	addi	a5,a5,1
    26f8:	faf9                	bnez	a3,26ce <atol+0x30>
    26fa:	4501                	li	a0,0
    26fc:	8082                	ret
    26fe:	0017c683          	lbu	a3,1(a5)
    2702:	4585                	li	a1,1
    2704:	0785                	addi	a5,a5,1
    2706:	f6e1                	bnez	a3,26ce <atol+0x30>
    2708:	4501                	li	a0,0
    270a:	bfcd                	j	26fc <atol+0x5e>

.text.startup 區段的反組譯：

000000000000270c <main>:
    270c:	7145                	addi	sp,sp,-464
    270e:	e3a2                	sd	s0,448(sp)
    2710:	fb4a                	sd	s2,432(sp)
    2712:	eb5a                	sd	s6,400(sp)
    2714:	00000917          	auipc	s2,0x0
    2718:	25490913          	addi	s2,s2,596 # 2968 <input_data2>
    271c:	00000417          	auipc	s0,0x0
    2720:	0bc40413          	addi	s0,s0,188 # 27d8 <input_data1>
    2724:	8b0a                	mv	s6,sp
    2726:	ff26                	sd	s1,440(sp)
    2728:	f74e                	sd	s3,424(sp)
    272a:	f352                	sd	s4,416(sp)
    272c:	ef56                	sd	s5,408(sp)
    272e:	e786                	sd	ra,456(sp)
    2730:	8aca                	mv	s5,s2
    2732:	8a5a                	mv	s4,s6
    2734:	89ca                	mv	s3,s2
    2736:	84a2                	mv	s1,s0
    2738:	0009a583          	lw	a1,0(s3)
    273c:	4088                	lw	a0,0(s1)
    273e:	0491                	addi	s1,s1,4
    2740:	0991                	addi	s3,s3,4
    2742:	8bfff0ef          	jal	ra,2000 <multiply>
    2746:	00aa2023          	sw	a0,0(s4)
    274a:	0a11                	addi	s4,s4,4
    274c:	ff5496e3          	bne	s1,s5,2738 <main+0x2c>
    2750:	4505                	li	a0,1
    2752:	c2bff0ef          	jal	ra,237c <setStats>
    2756:	84da                	mv	s1,s6
    2758:	00092583          	lw	a1,0(s2)
    275c:	4008                	lw	a0,0(s0)
    275e:	0411                	addi	s0,s0,4
    2760:	0911                	addi	s2,s2,4
    2762:	89fff0ef          	jal	ra,2000 <multiply>
    2766:	c088                	sw	a0,0(s1)
    2768:	0491                	addi	s1,s1,4
    276a:	ff5417e3          	bne	s0,s5,2758 <main+0x4c>
    276e:	4501                	li	a0,0
    2770:	c0dff0ef          	jal	ra,237c <setStats>
    2774:	00000797          	auipc	a5,0x0
    2778:	38478793          	addi	a5,a5,900 # 2af8 <verify_data>
    277c:	4501                	li	a0,0
    277e:	06400813          	li	a6,100
    2782:	a039                	j	2790 <main+0x84>
    2784:	2509                	addiw	a0,a0,2
    2786:	02b71063          	bne	a4,a1,27a6 <main+0x9a>
    278a:	07a1                	addi	a5,a5,8
    278c:	03050763          	beq	a0,a6,27ba <main+0xae>
    2790:	000b2683          	lw	a3,0(s6)
    2794:	4390                	lw	a2,0(a5)
    2796:	004b2703          	lw	a4,4(s6)
    279a:	43cc                	lw	a1,4(a5)
    279c:	0b21                	addi	s6,s6,8
    279e:	2701                	sext.w	a4,a4
    27a0:	fed602e3          	beq	a2,a3,2784 <main+0x78>
    27a4:	2505                	addiw	a0,a0,1
    27a6:	60be                	ld	ra,456(sp)
    27a8:	641e                	ld	s0,448(sp)
    27aa:	74fa                	ld	s1,440(sp)
    27ac:	795a                	ld	s2,432(sp)
    27ae:	79ba                	ld	s3,424(sp)
    27b0:	7a1a                	ld	s4,416(sp)
    27b2:	6afa                	ld	s5,408(sp)
    27b4:	6b5a                	ld	s6,400(sp)
    27b6:	6179                	addi	sp,sp,464
    27b8:	8082                	ret
    27ba:	4501                	li	a0,0
    27bc:	b7ed                	j	27a6 <main+0x9a>
    27be:	1141                	addi	sp,sp,-16
    27c0:	00000517          	auipc	a0,0x0
    27c4:	4f050513          	addi	a0,a0,1264 # 2cb0 <verify_data+0x1b8>
    27c8:	e406                	sd	ra,8(sp)
    27ca:	c25ff0ef          	jal	ra,23ee <printstr>
    27ce:	60a2                	ld	ra,8(sp)
    27d0:	557d                	li	a0,-1
    27d2:	0141                	addi	sp,sp,16
    27d4:	8082                	ret

.data 區段的反組譯：

00000000000027d8 <input_data1>:
    27d8:	0029                	c.nop	10
    27da:	0000                	unimp
    27dc:	01c6                	slli	gp,gp,0x11
    27de:	0000                	unimp
    27e0:	0341                	addi	t1,t1,16
    27e2:	0000                	unimp
    27e4:	0000014f          	fnmadd.s	ft2,ft0,ft0,ft0,rne
    27e8:	0234                	addi	a3,sp,264
    27ea:	0000                	unimp
    27ec:	0001                	nop
    27ee:	0000                	unimp
    27f0:	000000bb          	addw	ra,zero,zero
    27f4:	03dd                	addi	t2,t2,23
    27f6:	0000                	unimp
    27f8:	02ed                	addi	t0,t0,27
    27fa:	0000                	unimp
    27fc:	016d                	addi	sp,sp,27
    27fe:	0000                	unimp
    2800:	015e                	slli	sp,sp,0x17
    2802:	0000                	unimp
    2804:	023c                	addi	a5,sp,264
    2806:	0000                	unimp
    2808:	0084                	addi	s1,sp,64
    280a:	0000                	unimp
    280c:	0040                	addi	s0,sp,4
    280e:	0000                	unimp
    2810:	03b5                	addi	t2,t2,13
    2812:	0000                	unimp
    2814:	0099                	addi	ra,ra,6
    2816:	0000                	unimp
    2818:	0248                	addi	a0,sp,260
    281a:	0000                	unimp
    281c:	00d8                	addi	a4,sp,68
    281e:	0000                	unimp
    2820:	0325                	addi	t1,t1,9
    2822:	0000                	unimp
    2824:	008c                	addi	a1,sp,64
    2826:	0000                	unimp
    2828:	026d                	addi	tp,tp,27 # 1b <_start+0x1b>
    282a:	0000                	unimp
    282c:	00d2                	slli	ra,ra,0x14
    282e:	0000                	unimp
    2830:	0006                	c.slli	zero,0x1
    2832:	0000                	unimp
    2834:	023c                	addi	a5,sp,264
    2836:	0000                	unimp
    2838:	000003a3          	sb	zero,7(zero) # 7 <_start+0x7>
    283c:	00000153          	fadd.s	ft2,ft0,ft0,rne
    2840:	037a                	slli	t1,t1,0x1e
    2842:	0000                	unimp
    2844:	0251                	addi	tp,tp,20 # 14 <_start+0x14>
    2846:	0000                	unimp
    2848:	0188                	addi	a0,sp,192
    284a:	0000                	unimp
    284c:	0382                	c.slli64	t2
    284e:	0000                	unimp
    2850:	02b6                	slli	t0,t0,0xd
    2852:	0000                	unimp
    2854:	00e4                	addi	s1,sp,76
    2856:	0000                	unimp
    2858:	03c1                	addi	t2,t2,16
    285a:	0000                	unimp
    285c:	000c                	.2byte	0xc
    285e:	0000                	unimp
    2860:	006e                	c.slli	zero,0x1b
    2862:	0000                	unimp
    2864:	00000373          	.4byte	0x373
    2868:	0074                	addi	a3,sp,12
    286a:	0000                	unimp
    286c:	02ee                	slli	t0,t0,0x1b
    286e:	0000                	unimp
    2870:	0128                	addi	a0,sp,136
    2872:	0000                	unimp
    2874:	0286                	slli	t0,t0,0x1
    2876:	0000                	unimp
    2878:	01aa                	slli	gp,gp,0xa
    287a:	0000                	unimp
    287c:	01f4                	addi	a3,sp,204
    287e:	0000                	unimp
    2880:	013a                	slli	sp,sp,0xe
    2882:	0000                	unimp
    2884:	01b4                	addi	a3,sp,200
    2886:	0000                	unimp
    2888:	00000293          	li	t0,0
    288c:	02bd                	addi	t0,t0,15
    288e:	0000                	unimp
    2890:	0306                	slli	t1,t1,0x1
    2892:	0000                	unimp
    2894:	032c                	addi	a1,sp,392
    2896:	0000                	unimp
    2898:	0000013f 000003d5 	.8byte	0x3d50000013f
    28a0:	02a6                	slli	t0,t0,0x9
    28a2:	0000                	unimp
    28a4:	0096                	slli	ra,ra,0x5
    28a6:	0000                	unimp
    28a8:	0000036b          	.4byte	0x36b
    28ac:	02b8                	addi	a4,sp,328
    28ae:	0000                	unimp
    28b0:	0178                	addi	a4,sp,140
    28b2:	0000                	unimp
    28b4:	0234                	addi	a3,sp,264
    28b6:	0000                	unimp
    28b8:	01da                	slli	gp,gp,0x16
    28ba:	0000                	unimp
    28bc:	0110                	addi	a2,sp,128
    28be:	0000                	unimp
    28c0:	03aa                	slli	t2,t2,0xa
    28c2:	0000                	unimp
    28c4:	0102                	c.slli64	sp
    28c6:	0000                	unimp
    28c8:	0000021b          	sext.w	tp,zero
    28cc:	00000287          	.4byte	0x287
    28d0:	0239                	addi	tp,tp,14 # e <_start+0xe>
    28d2:	0000                	unimp
    28d4:	01fd                	addi	gp,gp,31 # 34a7 <__global_pointer$+0x1f>
    28d6:	0000                	unimp
    28d8:	000000cb          	fnmsub.s	ft1,ft0,ft0,ft0,rne
    28dc:	0058                	addi	a4,sp,4
    28de:	0000                	unimp
    28e0:	0118                	addi	a4,sp,128
    28e2:	0000                	unimp
    28e4:	000002bf 000002f7 	.8byte	0x2f7000002bf
    28ec:	029d                	addi	t0,t0,7
    28ee:	0000                	unimp
    28f0:	025e                	slli	tp,tp,0x17
    28f2:	0000                	unimp
    28f4:	00000177          	.4byte	0x177
    28f8:	01ff                	.2byte	0x1ff
    28fa:	0000                	unimp
    28fc:	00000227          	.4byte	0x227
    2900:	0291                	addi	t0,t0,4
    2902:	0000                	unimp
    2904:	03a8                	addi	a0,sp,456
    2906:	0000                	unimp
    2908:	000000c3          	fmadd.s	ft1,ft0,ft0,ft0,rne
    290c:	0250                	addi	a2,sp,260
    290e:	0000                	unimp
    2910:	0051                	c.nop	20
    2912:	0000                	unimp
    2914:	0239                	addi	tp,tp,14 # e <_start+0xe>
    2916:	0000                	unimp
    2918:	0000010b          	.4byte	0x10b
    291c:	03b8                	addi	a4,sp,456
    291e:	0000                	unimp
    2920:	00e5                	addi	ra,ra,25
    2922:	0000                	unimp
    2924:	0320                	addi	s0,sp,392
    2926:	0000                	unimp
    2928:	0151                	addi	sp,sp,20
    292a:	0000                	unimp
    292c:	0248                	addi	a0,sp,260
    292e:	0000                	unimp
    2930:	03b0                	addi	a2,sp,456
    2932:	0000                	unimp
    2934:	00000283          	lb	t0,0(zero) # 0 <_start>
    2938:	0386                	slli	t2,t2,0x1
    293a:	0000                	unimp
    293c:	0170                	addi	a2,sp,140
    293e:	0000                	unimp
    2940:	00f1                	addi	ra,ra,28
    2942:	0000                	unimp
    2944:	01e9                	addi	gp,gp,26 # 34a2 <__global_pointer$+0x1a>
    2946:	0000                	unimp
    2948:	0391                	addi	t2,t2,4
    294a:	0000                	unimp
    294c:	0148                	addi	a0,sp,132
    294e:	0000                	unimp
    2950:	033a                	slli	t1,t1,0xe
    2952:	0000                	unimp
    2954:	0139                	addi	sp,sp,14
    2956:	0000                	unimp
    2958:	03a5                	addi	t2,t2,9
    295a:	0000                	unimp
    295c:	0250                	addi	a2,sp,260
    295e:	0000                	unimp
    2960:	03d9                	addi	t2,t2,22
    2962:	0000                	unimp
    2964:	0184                	addi	s1,sp,192
    2966:	0000                	unimp

0000000000002968 <input_data2>:
    2968:	000000c3          	fmadd.s	ft1,ft0,ft0,ft0,rne
    296c:	021f 0000 03c0      	.byte	0x1f, 0x02, 0x00, 0x00, 0xc0, 0x03
    2972:	0000                	unimp
    2974:	0289                	addi	t0,t0,2
    2976:	0000                	unimp
    2978:	0236                	slli	tp,tp,0xd
    297a:	0000                	unimp
    297c:	000003d3          	fadd.s	ft7,ft0,ft0,rne
    2980:	015e                	slli	sp,sp,0x17
    2982:	0000                	unimp
    2984:	03e5                	addi	t2,t2,25
    2986:	0000                	unimp
    2988:	0289                	addi	t0,t0,2
    298a:	0000                	unimp
    298c:	032e                	slli	t1,t1,0xb
    298e:	0000                	unimp
    2990:	0291                	addi	t0,t0,4
    2992:	0000                	unimp
    2994:	0000004f          	fnmadd.s	ft0,ft0,ft0,ft0,rne
    2998:	00b5                	addi	ra,ra,13
    299a:	0000                	unimp
    299c:	00d0                	addi	a2,sp,68
    299e:	0000                	unimp
    29a0:	0000006f          	j	29a0 <input_data2+0x38>
    29a4:	03e6                	slli	t2,t2,0x19
    29a6:	0000                	unimp
    29a8:	0000035b          	.4byte	0x35b
    29ac:	0275                	addi	tp,tp,29 # 1d <_start+0x1d>
    29ae:	0000                	unimp
    29b0:	0041                	c.nop	16
    29b2:	0000                	unimp
    29b4:	0000034f          	fnmadd.s	ft6,ft0,ft0,ft0,rne
    29b8:	0120                	addi	s0,sp,136
    29ba:	0000                	unimp
    29bc:	02c0                	addi	s0,sp,324
    29be:	0000                	unimp
    29c0:	015d                	addi	sp,sp,23
    29c2:	0000                	unimp
    29c4:	03e5                	addi	t2,t2,25
    29c6:	0000                	unimp
    29c8:	008d                	addi	ra,ra,3
    29ca:	0000                	unimp
    29cc:	00fd                	addi	ra,ra,31
    29ce:	0000                	unimp
    29d0:	0389                	addi	t2,t2,2
    29d2:	0000                	unimp
    29d4:	000002cb          	fnmsub.s	ft5,ft0,ft0,ft0,rne
    29d8:	0376                	slli	t1,t1,0x1d
    29da:	0000                	unimp
    29dc:	01ae                	slli	gp,gp,0xb
    29de:	0000                	unimp
    29e0:	0108                	addi	a0,sp,128
    29e2:	0000                	unimp
    29e4:	019f 0000 0240      	.byte	0x9f, 0x01, 0x00, 0x00, 0x40, 0x02
    29ea:	0000                	unimp
    29ec:	021a                	slli	tp,tp,0x6
    29ee:	0000                	unimp
    29f0:	000003d3          	fadd.s	ft7,ft0,ft0,rne
    29f4:	02bc                	addi	a5,sp,328
    29f6:	0000                	unimp
    29f8:	02f9                	addi	t0,t0,30
    29fa:	0000                	unimp
    29fc:	0004                	.2byte	0x4
    29fe:	0000                	unimp
    2a00:	00f1                	addi	ra,ra,28
    2a02:	0000                	unimp
    2a04:	01ee                	slli	gp,gp,0x1b
    2a06:	0000                	unimp
    2a08:	01de                	slli	gp,gp,0x17
    2a0a:	0000                	unimp
    2a0c:	0064                	addi	s1,sp,12
    2a0e:	0000                	unimp
    2a10:	000001f3          	.4byte	0x1f3
    2a14:	0360                	addi	s0,sp,396
    2a16:	0000                	unimp
    2a18:	00000193          	li	gp,0
    2a1c:	02b5                	addi	t0,t0,13
    2a1e:	0000                	unimp
    2a20:	00de                	slli	ra,ra,0x17
    2a22:	0000                	unimp
    2a24:	01a0                	addi	s0,sp,200
    2a26:	0000                	unimp
    2a28:	01bc                	addi	a5,sp,200
    2a2a:	0000                	unimp
    2a2c:	0128                	addi	a0,sp,136
    2a2e:	0000                	unimp
    2a30:	02d1                	addi	t0,t0,20
    2a32:	0000                	unimp
    2a34:	011d                	addi	sp,sp,7
    2a36:	0000                	unimp
    2a38:	02a4                	addi	s1,sp,328
    2a3a:	0000                	unimp
    2a3c:	026c                	addi	a1,sp,268
    2a3e:	0000                	unimp
    2a40:	013d                	addi	sp,sp,15
    2a42:	0000                	unimp
    2a44:	004e                	c.slli	zero,0x13
    2a46:	0000                	unimp
    2a48:	00e0                	addi	s0,sp,76
    2a4a:	0000                	unimp
    2a4c:	015f 0000 03a9      	.byte	0x5f, 0x01, 0x00, 0x00, 0xa9, 0x03
    2a52:	0000                	unimp
    2a54:	021c                	addi	a5,sp,256
    2a56:	0000                	unimp
    2a58:	0120                	addi	s0,sp,136
    2a5a:	0000                	unimp
    2a5c:	0286                	slli	t0,t0,0x1
    2a5e:	0000                	unimp
    2a60:	00000077          	.4byte	0x77
    2a64:	00a9                	addi	ra,ra,10
    2a66:	0000                	unimp
    2a68:	00000267          	jalr	tp,zero # 0 <_start>
    2a6c:	0000020f          	.4byte	0x20f
    2a70:	025e                	slli	tp,tp,0x17
    2a72:	0000                	unimp
    2a74:	0121                	addi	sp,sp,8
    2a76:	0000                	unimp
    2a78:	0185                	addi	gp,gp,1 # 3489 <__global_pointer$+0x1>
    2a7a:	0000                	unimp
    2a7c:	031c                	addi	a5,sp,384
    2a7e:	0000                	unimp
    2a80:	015f 0000 0321      	.byte	0x5f, 0x01, 0x00, 0x00, 0x21, 0x03
    2a86:	0000                	unimp
    2a88:	000001c7          	fmsub.s	ft3,ft0,ft0,ft0,rne
    2a8c:	02d0                	addi	a2,sp,324
    2a8e:	0000                	unimp
    2a90:	0116                	slli	sp,sp,0x5
    2a92:	0000                	unimp
    2a94:	02f6                	slli	t0,t0,0x1d
    2a96:	0000                	unimp
    2a98:	0000016f          	jal	sp,2a98 <input_data2+0x130>
    2a9c:	02e9                	addi	t0,t0,26
    2a9e:	0000                	unimp
    2aa0:	0166                	slli	sp,sp,0x19
    2aa2:	0000                	unimp
    2aa4:	005c                	addi	a5,sp,4
    2aa6:	0000                	unimp
    2aa8:	0248                	addi	a0,sp,260
    2aaa:	0000                	unimp
    2aac:	03dd                	addi	t2,t2,23
    2aae:	0000                	unimp
    2ab0:	003e                	c.slli	zero,0xf
    2ab2:	0000                	unimp
    2ab4:	0000010f          	.4byte	0x10f
    2ab8:	03d9                	addi	t2,t2,22
    2aba:	0000                	unimp
    2abc:	0355                	addi	t1,t1,21
    2abe:	0000                	unimp
    2ac0:	00000193          	li	gp,0
    2ac4:	0314                	addi	a3,sp,384
    2ac6:	0000                	unimp
    2ac8:	015a                	slli	sp,sp,0x16
    2aca:	0000                	unimp
    2acc:	00000213          	li	tp,0
    2ad0:	0205                	addi	tp,tp,1 # 1 <_start+0x1>
    2ad2:	0000                	unimp
    2ad4:	00de                	slli	ra,ra,0x17
    2ad6:	0000                	unimp
    2ad8:	0000022f          	.4byte	0x22f
    2adc:	01cd                	addi	gp,gp,19 # 349b <__global_pointer$+0x13>
    2ade:	0000                	unimp
    2ae0:	038c                	addi	a1,sp,448
    2ae2:	0000                	unimp
    2ae4:	00f1                	addi	ra,ra,28
    2ae6:	0000                	unimp
    2ae8:	00000307          	.4byte	0x307
    2aec:	0166                	slli	sp,sp,0x19
    2aee:	0000                	unimp
    2af0:	00ff                	.2byte	0xff
    2af2:	0000                	unimp
    2af4:	014c                	addi	a1,sp,132
    2af6:	0000                	unimp

0000000000002af8 <verify_data>:
    2af8:	00001f3b          	sllw	t5,zero,zero
    2afc:	c2fa                	sw	t5,68(sp)
    2afe:	33c00003          	lb	zero,828(zero) # 33c <trap_entry+0x21c>
    2b02:	000c                	.2byte	0xc
    2b04:	00035147          	fmsub.s	ft2,ft6,ft0,ft0,unknown
    2b08:	def8                	sw	a4,124(a3)
    2b0a:	0004                	.2byte	0x4
    2b0c:	000003d3          	fadd.s	ft7,ft0,ft0,rne
    2b10:	ffaa                	sd	a0,504(sp)
    2b12:	0000                	unimp
    2b14:	0bb1                	addi	s7,s7,12
    2b16:	6ad5000f          	.4byte	0x6ad5000f
    2b1a:	88960007          	.4byte	0x88960007
    2b1e:	0004                	.2byte	0x4
    2b20:	823e                	mv	tp,a5
    2b22:	b0840003          	lb	zero,-1272(s0)
    2b26:	0000                	unimp
    2b28:	5d54                	lw	a3,60(a0)
    2b2a:	0000                	unimp
    2b2c:	3400                	fld	fs0,40(s0)
    2b2e:	0000                	unimp
    2b30:	00019b7b          	.4byte	0x19b7b
    2b34:	5476                	lw	s0,124(sp)
    2b36:	0002                	c.slli64	zero
    2b38:	a798                	fsd	fa4,8(a5)
    2b3a:	12b80007          	.4byte	0x12b80007
    2b3e:	0002                	c.slli64	zero
    2b40:	cc65                	beqz	s0,2c38 <verify_data+0x140>
    2b42:	0000                	unimp
    2b44:	cf34                	sw	a3,88(a4)
    2b46:	0001                	nop
    2b48:	baa0                	fsd	fs0,112(a3)
    2b4a:	0002                	c.slli64	zero
    2b4c:	4180                	lw	s0,0(a1)
    2b4e:	0002                	c.slli64	zero
    2b50:	082e                	slli	a6,a6,0xb
    2b52:	0000                	unimp
    2b54:	b3ac                	fsd	fa1,96(a5)
    2b56:	0008                	.2byte	0x8
    2b58:	000200c7          	fmsub.s	ft1,ft4,ft0,ft0,rne
    2b5c:	00014f07          	.4byte	0x14f07
    2b60:	4a4a                	lw	s4,144(sp)
    2b62:	000c                	.2byte	0xc
    2b64:	0006783b          	.4byte	0x6783b
    2b68:	4cb0                	lw	a2,88(s1)
    2b6a:	0005                	c.nop	1
    2b6c:	e45c                	sd	a5,136(s0)
    2b6e:	0005                	c.nop	1
    2b70:	cbb0                	sw	a2,80(a5)
    2b72:	0002                	c.slli64	zero
    2b74:	719c                	ld	a5,32(a1)
    2b76:	0001                	nop
    2b78:	7240                	ld	s0,160(a2)
    2b7a:	0008                	.2byte	0x8
    2b7c:	1938                	addi	a4,sp,184
    2b7e:	0000                	unimp
    2b80:	a4aa                	fsd	fa0,72(sp)
    2b82:	0001                	nop
    2b84:	6e74                	ld	a3,216(a2)
    2b86:	0009                	c.nop	2
    2b88:	58d4                	lw	a3,52(s1)
    2b8a:	0001                	nop
    2b8c:	0bb8                	addi	a4,sp,472
    2b8e:	0000                	unimp
    2b90:	16a8                	addi	a0,sp,872
    2b92:	0001                	nop
    2b94:	de94                	sw	a3,56(a3)
    2b96:	0004                	.2byte	0x4
    2b98:	1b6c                	addi	a1,sp,444
    2b9a:	c3500003          	lb	zero,-971(zero) # fffffffffffffc35 <__global_pointer$+0xffffffffffffc7ad>
    2b9e:	0000                	unimp
    2ba0:	640e                	ld	s0,192(sp)
    2ba2:	0002                	c.slli64	zero
    2ba4:	bf80                	fsd	fs0,56(a5)
    2ba6:	0005                	c.nop	1
    2ba8:	0d69                	addi	s10,s10,26
    2baa:	0004                	.2byte	0x4
    2bac:	69a1                	lui	s3,0x8
    2bae:	9f340007          	.4byte	0x9f340007
    2bb2:	0002                	c.slli64	zero
    2bb4:	2780                	fld	fs0,8(a5)
    2bb6:	0005                	c.nop	1
    2bb8:	2944                	fld	fs1,144(a0)
    2bba:	0002                	c.slli64	zero
    2bbc:	6e48                	ld	a0,152(a2)
    2bbe:	0004                	.2byte	0x4
    2bc0:	7586                	ld	a1,96(sp)
    2bc2:	a6fe0007          	.4byte	0xa6fe0007
    2bc6:	0000                	unimp
    2bc8:	068c                	addi	a1,sp,832
    2bca:	0009                	c.nop	2
    2bcc:	95a0                	.2byte	0x95a0
    2bce:	0006                	c.slli	zero,0x1
    2bd0:	d198                	sw	a4,32(a1)
    2bd2:	0001                	nop
    2bd4:	abd8                	fsd	fa4,144(a5)
    2bd6:	0000                	unimp
    2bd8:	9ec0                	.2byte	0x9ec0
    2bda:	0001                	nop
    2bdc:	74f0                	ld	a2,232(s1)
    2bde:	0001                	nop
    2be0:	693a                	ld	s2,392(sp)
    2be2:	000d                	c.nop	3
    2be4:	2038                	fld	fa4,64(s0)
    2be6:	0002                	c.slli64	zero
    2be8:	5e60                	lw	s0,124(a2)
    2bea:	0002                	c.slli64	zero
    2bec:	60aa                	ld	ra,136(sp)
    2bee:	0006                	c.slli	zero,0x1
    2bf0:	087f                	.2byte	0x87f
    2bf2:	0001                	nop
    2bf4:	5005                	c.li	zero,-31
    2bf6:	0001                	nop
    2bf8:	e7ad                	bnez	a5,2c62 <verify_data+0x16a>
    2bfa:	0001                	nop
    2bfc:	b528                	fsd	fa0,104(a0)
    2bfe:	0000                	unimp
    2c00:	96d0                	.2byte	0x96d0
    2c02:	0002                	c.slli64	zero
    2c04:	199f 0003 8153      	.byte	0x9f, 0x19, 0x03, 0x00, 0x53, 0x81
    2c0a:	0004                	.2byte	0x4
    2c0c:	202c                	fld	fa1,64(s0)
    2c0e:	0008                	.2byte	0x8
    2c10:	3ee2                	fld	ft9,56(sp)
    2c12:	95570003          	lb	zero,-1707(a4)
    2c16:	0004                	.2byte	0x4
    2c18:	8c39                	xor	s0,s0,a4
    2c1a:	0db00003          	lb	zero,219(zero) # db <buflen.1+0x9b>
    2c1e:	0006                	c.slli	zero,0x1
    2c20:	c976                	sw	t4,144(sp)
    2c22:	0002                	c.slli64	zero
    2c24:	d370                	sw	a2,100(a4)
    2c26:	000a                	c.slli	zero,0x2
    2c28:	178d                	addi	a5,a5,-29
    2c2a:	0001                	nop
    2c2c:	bad0                	fsd	fa2,176(a3)
    2c2e:	0006                	c.slli	zero,0x1
    2c30:	7146                	ld	sp,112(sp)
    2c32:	0000                	unimp
    2c34:	cc7c                	sw	a5,92(s0)
    2c36:	0000                	unimp
    2c38:	6118                	ld	a4,0(a0)
    2c3a:	0002                	c.slli64	zero
    2c3c:	5dd8                	lw	a4,60(a1)
    2c3e:	000e                	c.slli	zero,0x3
    2c40:	3776                	fld	fa4,376(sp)
    2c42:	0000                	unimp
    2c44:	4ee0                	lw	s0,92(a3)
    2c46:	10a90003          	lb	zero,266(s2)
    2c4a:	0005                	c.nop	1
    2c4c:	99e8                	.2byte	0x99e8
    2c4e:	ce100007          	.4byte	0xce100007
    2c52:	0005                	c.nop	1
    2c54:	bb3c                	fsd	fa5,112(a4)
    2c56:	c31c0007          	.4byte	0xc31c0007
    2c5a:	0004                	.2byte	0x4
    2c5c:	fb50                	sd	a2,176(a4)
    2c5e:	0002                	c.slli64	zero
    2c60:	e6b5                	bnez	a3,2ccc <verify_data+0x1d4>
    2c62:	0001                	nop
    2c64:	a80e                	fsd	ft3,16(sp)
    2c66:	0001                	nop
    2c68:	c99f 0007 4ea8      	.byte	0x9f, 0xc9, 0x07, 0x00, 0xa8, 0x4e
    2c6e:	0002                	c.slli64	zero
    2c70:	71b8                	ld	a4,96(a1)
    2c72:	26a9000b          	.4byte	0x26a9000b
    2c76:	0001                	nop
    2c78:	000b0883          	lb	a7,0(s6)
    2c7c:	3be0                	fld	fs0,240(a5)
    2c7e:	d5270003          	lb	zero,-686(a4)
    2c82:	f7300003          	lb	zero,-141(zero) # ffffffffffffff73 <__global_pointer$+0xffffffffffffcaeb>
    2c86:	0001                	nop
