
vvadd.riscv      檔案格式 elf64-littleriscv


.text.init 區段的反組譯：

0000000000000000 <_start>:
   0:	4081                	li	ra,0
   2:	4101                	li	sp,0
   4:	4181                	li	gp,0
   6:	4201                	li	tp,0
   8:	4281                	li	t0,0
   a:	4301                	li	t1,0
   c:	4381                	li	t2,0
   e:	4401                	li	s0,0
  10:	4481                	li	s1,0
  12:	4501                	li	a0,0
  14:	4581                	li	a1,0
  16:	4601                	li	a2,0
  18:	4681                	li	a3,0
  1a:	4701                	li	a4,0
  1c:	4781                	li	a5,0
  1e:	4801                	li	a6,0
  20:	4881                	li	a7,0
  22:	4901                	li	s2,0
  24:	4981                	li	s3,0
  26:	4a01                	li	s4,0
  28:	4a81                	li	s5,0
  2a:	4b01                	li	s6,0
  2c:	4b81                	li	s7,0
  2e:	4c01                	li	s8,0
  30:	4c81                	li	s9,0
  32:	4d01                	li	s10,0
  34:	4d81                	li	s11,0
  36:	4e01                	li	t3,0
  38:	4e81                	li	t4,0
  3a:	4f01                	li	t5,0
  3c:	4f81                	li	t6,0
  3e:	62f9                	lui	t0,0x1e
  40:	3002a073          	csrs	mstatus,t0
  44:	4285                	li	t0,1
  46:	02fe                	slli	t0,t0,0x1f
  48:	0002d863          	bgez	t0,58 <buflen.1+0x18>
  4c:	4505                	li	a0,1
  4e:	00001297          	auipc	t0,0x1
  52:	faa2a923          	sw	a0,-78(t0) # 1000 <tohost>
  56:	bfdd                	j	4c <buflen.1+0xc>
  58:	00000297          	auipc	t0,0x0
  5c:	09028293          	addi	t0,t0,144 # e8 <buflen.1+0xa8>
  60:	30529073          	csrw	mtvec,t0
  64:	00301073          	fscsr	zero
  68:	f0000053          	fmv.w.x	ft0,zero
  6c:	f00000d3          	fmv.w.x	ft1,zero
  70:	f0000153          	fmv.w.x	ft2,zero
  74:	f00001d3          	fmv.w.x	ft3,zero
  78:	f0000253          	fmv.w.x	ft4,zero
  7c:	f00002d3          	fmv.w.x	ft5,zero
  80:	f0000353          	fmv.w.x	ft6,zero
  84:	f00003d3          	fmv.w.x	ft7,zero
  88:	f0000453          	fmv.w.x	fs0,zero
  8c:	f00004d3          	fmv.w.x	fs1,zero
  90:	f0000553          	fmv.w.x	fa0,zero
  94:	f00005d3          	fmv.w.x	fa1,zero
  98:	f0000653          	fmv.w.x	fa2,zero
  9c:	f00006d3          	fmv.w.x	fa3,zero
  a0:	f0000753          	fmv.w.x	fa4,zero
  a4:	f00007d3          	fmv.w.x	fa5,zero
  a8:	f0000853          	fmv.w.x	fa6,zero
  ac:	f00008d3          	fmv.w.x	fa7,zero
  b0:	f0000953          	fmv.w.x	fs2,zero
  b4:	f00009d3          	fmv.w.x	fs3,zero
  b8:	f0000a53          	fmv.w.x	fs4,zero
  bc:	f0000ad3          	fmv.w.x	fs5,zero
  c0:	f0000b53          	fmv.w.x	fs6,zero
  c4:	f0000bd3          	fmv.w.x	fs7,zero
  c8:	f0000c53          	fmv.w.x	fs8,zero
  cc:	f0000cd3          	fmv.w.x	fs9,zero
  d0:	f0000d53          	fmv.w.x	fs10,zero
  d4:	f0000dd3          	fmv.w.x	fs11,zero
  d8:	f0000e53          	fmv.w.x	ft8,zero
  dc:	f0000ed3          	fmv.w.x	ft9,zero
  e0:	f0000f53          	fmv.w.x	ft10,zero
  e4:	f0000fd3          	fmv.w.x	ft11,zero
  e8:	00000297          	auipc	t0,0x0
  ec:	03828293          	addi	t0,t0,56 # 120 <trap_entry>
  f0:	30529073          	csrw	mtvec,t0
  f4:	00004197          	auipc	gp,0x4
  f8:	cf418193          	addi	gp,gp,-780 # 3de8 <__global_pointer$>
  fc:	a1718213          	addi	tp,gp,-1513 # 37ff <_end+0x3f>
 100:	fc027213          	andi	tp,tp,-64
 104:	f1402573          	csrr	a0,mhartid
 108:	4585                	li	a1,1
 10a:	00b57063          	bgeu	a0,a1,10a <buflen.1+0xca>
 10e:	00150113          	addi	sp,a0,1
 112:	0146                	slli	sp,sp,0x11
 114:	9112                	add	sp,sp,tp
 116:	01151613          	slli	a2,a0,0x11
 11a:	9232                	add	tp,tp,a2
 11c:	4600206f          	j	257c <_init>

0000000000000120 <trap_entry>:
 120:	716d                	addi	sp,sp,-272
 122:	e406                	sd	ra,8(sp)
 124:	e80a                	sd	sp,16(sp)
 126:	ec0e                	sd	gp,24(sp)
 128:	f012                	sd	tp,32(sp)
 12a:	f416                	sd	t0,40(sp)
 12c:	f81a                	sd	t1,48(sp)
 12e:	fc1e                	sd	t2,56(sp)
 130:	e0a2                	sd	s0,64(sp)
 132:	e4a6                	sd	s1,72(sp)
 134:	e8aa                	sd	a0,80(sp)
 136:	ecae                	sd	a1,88(sp)
 138:	f0b2                	sd	a2,96(sp)
 13a:	f4b6                	sd	a3,104(sp)
 13c:	f8ba                	sd	a4,112(sp)
 13e:	fcbe                	sd	a5,120(sp)
 140:	e142                	sd	a6,128(sp)
 142:	e546                	sd	a7,136(sp)
 144:	e94a                	sd	s2,144(sp)
 146:	ed4e                	sd	s3,152(sp)
 148:	f152                	sd	s4,160(sp)
 14a:	f556                	sd	s5,168(sp)
 14c:	f95a                	sd	s6,176(sp)
 14e:	fd5e                	sd	s7,184(sp)
 150:	e1e2                	sd	s8,192(sp)
 152:	e5e6                	sd	s9,200(sp)
 154:	e9ea                	sd	s10,208(sp)
 156:	edee                	sd	s11,216(sp)
 158:	f1f2                	sd	t3,224(sp)
 15a:	f5f6                	sd	t4,232(sp)
 15c:	f9fa                	sd	t5,240(sp)
 15e:	fdfe                	sd	t6,248(sp)
 160:	34202573          	csrr	a0,mcause
 164:	341025f3          	csrr	a1,mepc
 168:	860a                	mv	a2,sp
 16a:	25a020ef          	jal	ra,23c4 <handle_trap>
 16e:	34151073          	csrw	mepc,a0
 172:	6289                	lui	t0,0x2
 174:	8002829b          	addiw	t0,t0,-2048 # 1800 <fromhost+0x7c0>
 178:	3002a073          	csrs	mstatus,t0
 17c:	60a2                	ld	ra,8(sp)
 17e:	6142                	ld	sp,16(sp)
 180:	61e2                	ld	gp,24(sp)
 182:	7202                	ld	tp,32(sp)
 184:	72a2                	ld	t0,40(sp)
 186:	7342                	ld	t1,48(sp)
 188:	73e2                	ld	t2,56(sp)
 18a:	6406                	ld	s0,64(sp)
 18c:	64a6                	ld	s1,72(sp)
 18e:	6546                	ld	a0,80(sp)
 190:	65e6                	ld	a1,88(sp)
 192:	7606                	ld	a2,96(sp)
 194:	76a6                	ld	a3,104(sp)
 196:	7746                	ld	a4,112(sp)
 198:	77e6                	ld	a5,120(sp)
 19a:	680a                	ld	a6,128(sp)
 19c:	68aa                	ld	a7,136(sp)
 19e:	694a                	ld	s2,144(sp)
 1a0:	69ea                	ld	s3,152(sp)
 1a2:	7a0a                	ld	s4,160(sp)
 1a4:	7aaa                	ld	s5,168(sp)
 1a6:	7b4a                	ld	s6,176(sp)
 1a8:	7bea                	ld	s7,184(sp)
 1aa:	6c0e                	ld	s8,192(sp)
 1ac:	6cae                	ld	s9,200(sp)
 1ae:	6d4e                	ld	s10,208(sp)
 1b0:	6dee                	ld	s11,216(sp)
 1b2:	7e0e                	ld	t3,224(sp)
 1b4:	7eae                	ld	t4,232(sp)
 1b6:	7f4e                	ld	t5,240(sp)
 1b8:	7fee                	ld	t6,248(sp)
 1ba:	6151                	addi	sp,sp,272
 1bc:	30200073          	mret
 1c0:	0000                	unimp

.text 區段的反組譯：

0000000000002000 <vvadd>:
    2000:	00a05d63          	blez	a0,201a <vvadd+0x1a>
    2004:	050a                	slli	a0,a0,0x2
    2006:	952e                	add	a0,a0,a1
    2008:	4198                	lw	a4,0(a1)
    200a:	421c                	lw	a5,0(a2)
    200c:	0591                	addi	a1,a1,4
    200e:	0611                	addi	a2,a2,4
    2010:	9fb9                	addw	a5,a5,a4
    2012:	c29c                	sw	a5,0(a3)
    2014:	0691                	addi	a3,a3,4
    2016:	fea599e3          	bne	a1,a0,2008 <vvadd+0x8>
    201a:	8082                	ret

000000000000201c <vprintfmt>:
    201c:	7149                	addi	sp,sp,-368
    201e:	f2a2                	sd	s0,352(sp)
    2020:	eea6                	sd	s1,344(sp)
    2022:	eaca                	sd	s2,336(sp)
    2024:	e2d2                	sd	s4,320(sp)
    2026:	fe56                	sd	s5,312(sp)
    2028:	fa5a                	sd	s6,304(sp)
    202a:	f65e                	sd	s7,296(sp)
    202c:	f686                	sd	ra,360(sp)
    202e:	e6ce                	sd	s3,328(sp)
    2030:	f262                	sd	s8,288(sp)
    2032:	ee66                	sd	s9,280(sp)
    2034:	ea6a                	sd	s10,272(sp)
    2036:	e66e                	sd	s11,264(sp)
    2038:	892a                	mv	s2,a0
    203a:	84ae                	mv	s1,a1
    203c:	8432                	mv	s0,a2
    203e:	8ab6                	mv	s5,a3
    2040:	02500a13          	li	s4,37
    2044:	05500b93          	li	s7,85
    2048:	84c18b13          	addi	s6,gp,-1972 # 3634 <verify_data+0x4fc>
    204c:	a029                	j	2056 <vprintfmt+0x3a>
    204e:	cd1d                	beqz	a0,208c <vprintfmt+0x70>
    2050:	85a6                	mv	a1,s1
    2052:	0405                	addi	s0,s0,1
    2054:	9902                	jalr	s2
    2056:	00044503          	lbu	a0,0(s0)
    205a:	ff451ae3          	bne	a0,s4,204e <vprintfmt+0x32>
    205e:	00144683          	lbu	a3,1(s0)
    2062:	00140993          	addi	s3,s0,1
    2066:	874e                	mv	a4,s3
    2068:	02000c93          	li	s9,32
    206c:	5c7d                	li	s8,-1
    206e:	5dfd                	li	s11,-1
    2070:	4601                	li	a2,0
    2072:	fdd6879b          	addiw	a5,a3,-35
    2076:	0ff7f793          	zext.b	a5,a5
    207a:	00170413          	addi	s0,a4,1
    207e:	04fbe263          	bltu	s7,a5,20c2 <vprintfmt+0xa6>
    2082:	078a                	slli	a5,a5,0x2
    2084:	97da                	add	a5,a5,s6
    2086:	439c                	lw	a5,0(a5)
    2088:	97da                	add	a5,a5,s6
    208a:	8782                	jr	a5
    208c:	70b6                	ld	ra,360(sp)
    208e:	7416                	ld	s0,352(sp)
    2090:	64f6                	ld	s1,344(sp)
    2092:	6956                	ld	s2,336(sp)
    2094:	69b6                	ld	s3,328(sp)
    2096:	6a16                	ld	s4,320(sp)
    2098:	7af2                	ld	s5,312(sp)
    209a:	7b52                	ld	s6,304(sp)
    209c:	7bb2                	ld	s7,296(sp)
    209e:	7c12                	ld	s8,288(sp)
    20a0:	6cf2                	ld	s9,280(sp)
    20a2:	6d52                	ld	s10,272(sp)
    20a4:	6db2                	ld	s11,264(sp)
    20a6:	6175                	addi	sp,sp,368
    20a8:	8082                	ret
    20aa:	8cb6                	mv	s9,a3
    20ac:	00174683          	lbu	a3,1(a4)
    20b0:	8722                	mv	a4,s0
    20b2:	00170413          	addi	s0,a4,1
    20b6:	fdd6879b          	addiw	a5,a3,-35
    20ba:	0ff7f793          	zext.b	a5,a5
    20be:	fcfbf2e3          	bgeu	s7,a5,2082 <vprintfmt+0x66>
    20c2:	85a6                	mv	a1,s1
    20c4:	02500513          	li	a0,37
    20c8:	9902                	jalr	s2
    20ca:	844e                	mv	s0,s3
    20cc:	b769                	j	2056 <vprintfmt+0x3a>
    20ce:	fd068c1b          	addiw	s8,a3,-48
    20d2:	00174683          	lbu	a3,1(a4)
    20d6:	47a5                	li	a5,9
    20d8:	fd06871b          	addiw	a4,a3,-48
    20dc:	0006859b          	sext.w	a1,a3
    20e0:	20e7e863          	bltu	a5,a4,22f0 <vprintfmt+0x2d4>
    20e4:	8722                	mv	a4,s0
    20e6:	4825                	li	a6,9
    20e8:	00174683          	lbu	a3,1(a4)
    20ec:	002c179b          	slliw	a5,s8,0x2
    20f0:	018787bb          	addw	a5,a5,s8
    20f4:	0017979b          	slliw	a5,a5,0x1
    20f8:	9fad                	addw	a5,a5,a1
    20fa:	fd06851b          	addiw	a0,a3,-48
    20fe:	0705                	addi	a4,a4,1
    2100:	fd078c1b          	addiw	s8,a5,-48
    2104:	0006859b          	sext.w	a1,a3
    2108:	fea870e3          	bgeu	a6,a0,20e8 <vprintfmt+0xcc>
    210c:	f60dd3e3          	bgez	s11,2072 <vprintfmt+0x56>
    2110:	8de2                	mv	s11,s8
    2112:	5c7d                	li	s8,-1
    2114:	bfb9                	j	2072 <vprintfmt+0x56>
    2116:	00174683          	lbu	a3,1(a4)
    211a:	8722                	mv	a4,s0
    211c:	bf99                	j	2072 <vprintfmt+0x56>
    211e:	85a6                	mv	a1,s1
    2120:	02500513          	li	a0,37
    2124:	9902                	jalr	s2
    2126:	bf05                	j	2056 <vprintfmt+0x3a>
    2128:	000aac03          	lw	s8,0(s5)
    212c:	00174683          	lbu	a3,1(a4)
    2130:	0aa1                	addi	s5,s5,8
    2132:	8722                	mv	a4,s0
    2134:	bfe1                	j	210c <vprintfmt+0xf0>
    2136:	03000513          	li	a0,48
    213a:	85a6                	mv	a1,s1
    213c:	9902                	jalr	s2
    213e:	85a6                	mv	a1,s1
    2140:	07800513          	li	a0,120
    2144:	9902                	jalr	s2
    2146:	46c1                	li	a3,16
    2148:	008a8713          	addi	a4,s5,8
    214c:	000ab783          	ld	a5,0(s5)
    2150:	8aba                	mv	s5,a4
    2152:	02d7f5b3          	remu	a1,a5,a3
    2156:	000c899b          	sext.w	s3,s9
    215a:	0050                	addi	a2,sp,4
    215c:	4705                	li	a4,1
    215e:	c02e                	sw	a1,0(sp)
    2160:	16d7e663          	bltu	a5,a3,22cc <vprintfmt+0x2b0>
    2164:	02d7d7b3          	divu	a5,a5,a3
    2168:	0611                	addi	a2,a2,4
    216a:	8c3a                	mv	s8,a4
    216c:	2705                	addiw	a4,a4,1
    216e:	02d7f5b3          	remu	a1,a5,a3
    2172:	feb62e23          	sw	a1,-4(a2)
    2176:	fed7f7e3          	bgeu	a5,a3,2164 <vprintfmt+0x148>
    217a:	fffd8c9b          	addiw	s9,s11,-1
    217e:	fff70d1b          	addiw	s10,a4,-1
    2182:	01b75863          	bge	a4,s11,2192 <vprintfmt+0x176>
    2186:	3cfd                	addiw	s9,s9,-1
    2188:	85a6                	mv	a1,s1
    218a:	854e                	mv	a0,s3
    218c:	9902                	jalr	s2
    218e:	ffac9ce3          	bne	s9,s10,2186 <vprintfmt+0x16a>
    2192:	0c0a                	slli	s8,s8,0x2
    2194:	018109b3          	add	s3,sp,s8
    2198:	ffc10c93          	addi	s9,sp,-4
    219c:	4c25                	li	s8,9
    219e:	0009a783          	lw	a5,0(s3)
    21a2:	05700513          	li	a0,87
    21a6:	00fc6463          	bltu	s8,a5,21ae <vprintfmt+0x192>
    21aa:	03000513          	li	a0,48
    21ae:	19f1                	addi	s3,s3,-4
    21b0:	85a6                	mv	a1,s1
    21b2:	9d3d                	addw	a0,a0,a5
    21b4:	9902                	jalr	s2
    21b6:	ff3c94e3          	bne	s9,s3,219e <vprintfmt+0x182>
    21ba:	bd71                	j	2056 <vprintfmt+0x3a>
    21bc:	4785                	li	a5,1
    21be:	008a8c13          	addi	s8,s5,8
    21c2:	00c7c463          	blt	a5,a2,21ca <vprintfmt+0x1ae>
    21c6:	10060563          	beqz	a2,22d0 <vprintfmt+0x2b4>
    21ca:	000ab983          	ld	s3,0(s5)
    21ce:	1009c863          	bltz	s3,22de <vprintfmt+0x2c2>
    21d2:	87ce                	mv	a5,s3
    21d4:	8ae2                	mv	s5,s8
    21d6:	46a9                	li	a3,10
    21d8:	bfad                	j	2152 <vprintfmt+0x136>
    21da:	00174683          	lbu	a3,1(a4)
    21de:	2605                	addiw	a2,a2,1
    21e0:	8722                	mv	a4,s0
    21e2:	bd41                	j	2072 <vprintfmt+0x56>
    21e4:	46c1                	li	a3,16
    21e6:	4785                	li	a5,1
    21e8:	008a8713          	addi	a4,s5,8
    21ec:	f6c7c0e3          	blt	a5,a2,214c <vprintfmt+0x130>
    21f0:	fe31                	bnez	a2,214c <vprintfmt+0x130>
    21f2:	000ae783          	lwu	a5,0(s5)
    21f6:	8aba                	mv	s5,a4
    21f8:	bfa9                	j	2152 <vprintfmt+0x136>
    21fa:	000abd03          	ld	s10,0(s5)
    21fe:	0aa1                	addi	s5,s5,8
    2200:	040d0263          	beqz	s10,2244 <vprintfmt+0x228>
    2204:	09b05d63          	blez	s11,229e <vprintfmt+0x282>
    2208:	02d00793          	li	a5,45
    220c:	04fc9e63          	bne	s9,a5,2268 <vprintfmt+0x24c>
    2210:	000d4503          	lbu	a0,0(s10)
    2214:	c105                	beqz	a0,2234 <vprintfmt+0x218>
    2216:	59fd                	li	s3,-1
    2218:	000c4563          	bltz	s8,2222 <vprintfmt+0x206>
    221c:	3c7d                	addiw	s8,s8,-1
    221e:	013c0963          	beq	s8,s3,2230 <vprintfmt+0x214>
    2222:	85a6                	mv	a1,s1
    2224:	0d05                	addi	s10,s10,1
    2226:	9902                	jalr	s2
    2228:	000d4503          	lbu	a0,0(s10)
    222c:	3dfd                	addiw	s11,s11,-1
    222e:	f56d                	bnez	a0,2218 <vprintfmt+0x1fc>
    2230:	e3b053e3          	blez	s11,2056 <vprintfmt+0x3a>
    2234:	3dfd                	addiw	s11,s11,-1
    2236:	85a6                	mv	a1,s1
    2238:	02000513          	li	a0,32
    223c:	9902                	jalr	s2
    223e:	fe0d9be3          	bnez	s11,2234 <vprintfmt+0x218>
    2242:	bd11                	j	2056 <vprintfmt+0x3a>
    2244:	00001d17          	auipc	s10,0x1
    2248:	3acd0d13          	addi	s10,s10,940 # 35f0 <verify_data+0x4b8>
    224c:	02800513          	li	a0,40
    2250:	fdb053e3          	blez	s11,2216 <vprintfmt+0x1fa>
    2254:	02d00793          	li	a5,45
    2258:	00001d17          	auipc	s10,0x1
    225c:	398d0d13          	addi	s10,s10,920 # 35f0 <verify_data+0x4b8>
    2260:	02800513          	li	a0,40
    2264:	fafc89e3          	beq	s9,a5,2216 <vprintfmt+0x1fa>
    2268:	000d861b          	sext.w	a2,s11
    226c:	87ea                	mv	a5,s10
    226e:	018d06b3          	add	a3,s10,s8
    2272:	000c1663          	bnez	s8,227e <vprintfmt+0x262>
    2276:	a829                	j	2290 <vprintfmt+0x274>
    2278:	0785                	addi	a5,a5,1
    227a:	00d78563          	beq	a5,a3,2284 <vprintfmt+0x268>
    227e:	0007c703          	lbu	a4,0(a5)
    2282:	fb7d                	bnez	a4,2278 <vprintfmt+0x25c>
    2284:	41a787b3          	sub	a5,a5,s10
    2288:	40f60dbb          	subw	s11,a2,a5
    228c:	01b05963          	blez	s11,229e <vprintfmt+0x282>
    2290:	2c81                	sext.w	s9,s9
    2292:	3dfd                	addiw	s11,s11,-1
    2294:	85a6                	mv	a1,s1
    2296:	8566                	mv	a0,s9
    2298:	9902                	jalr	s2
    229a:	fe0d9ce3          	bnez	s11,2292 <vprintfmt+0x276>
    229e:	000d4503          	lbu	a0,0(s10)
    22a2:	da050ae3          	beqz	a0,2056 <vprintfmt+0x3a>
    22a6:	59fd                	li	s3,-1
    22a8:	bf85                	j	2218 <vprintfmt+0x1fc>
    22aa:	fffdc793          	not	a5,s11
    22ae:	97fd                	srai	a5,a5,0x3f
    22b0:	00fdf7b3          	and	a5,s11,a5
    22b4:	00174683          	lbu	a3,1(a4)
    22b8:	00078d9b          	sext.w	s11,a5
    22bc:	8722                	mv	a4,s0
    22be:	bb55                	j	2072 <vprintfmt+0x56>
    22c0:	000aa503          	lw	a0,0(s5)
    22c4:	85a6                	mv	a1,s1
    22c6:	0aa1                	addi	s5,s5,8
    22c8:	9902                	jalr	s2
    22ca:	b371                	j	2056 <vprintfmt+0x3a>
    22cc:	4c01                	li	s8,0
    22ce:	b575                	j	217a <vprintfmt+0x15e>
    22d0:	000aa983          	lw	s3,0(s5)
    22d4:	bded                	j	21ce <vprintfmt+0x1b2>
    22d6:	46a9                	li	a3,10
    22d8:	b739                	j	21e6 <vprintfmt+0x1ca>
    22da:	46a1                	li	a3,8
    22dc:	b729                	j	21e6 <vprintfmt+0x1ca>
    22de:	85a6                	mv	a1,s1
    22e0:	02d00513          	li	a0,45
    22e4:	9902                	jalr	s2
    22e6:	8ae2                	mv	s5,s8
    22e8:	413007b3          	neg	a5,s3
    22ec:	46a9                	li	a3,10
    22ee:	b595                	j	2152 <vprintfmt+0x136>
    22f0:	8722                	mv	a4,s0
    22f2:	bd29                	j	210c <vprintfmt+0xf0>

00000000000022f4 <sprintf_putch.0>:
    22f4:	619c                	ld	a5,0(a1)
    22f6:	00a78023          	sb	a0,0(a5)
    22fa:	619c                	ld	a5,0(a1)
    22fc:	0785                	addi	a5,a5,1
    22fe:	e19c                	sd	a5,0(a1)
    2300:	8082                	ret

0000000000002302 <putchar>:
    2302:	04022803          	lw	a6,64(tp) # 40 <buflen.1>
    2306:	00020793          	mv	a5,tp
    230a:	97c2                	add	a5,a5,a6
    230c:	7159                	addi	sp,sp,-112
    230e:	0018069b          	addiw	a3,a6,1
    2312:	04d22023          	sw	a3,64(tp) # 40 <buflen.1>
    2316:	00a78023          	sb	a0,0(a5)
    231a:	03f10713          	addi	a4,sp,63
    231e:	47a9                	li	a5,10
    2320:	fc077713          	andi	a4,a4,-64
    2324:	00f50963          	beq	a0,a5,2336 <putchar+0x34>
    2328:	04000793          	li	a5,64
    232c:	00f68563          	beq	a3,a5,2336 <putchar+0x34>
    2330:	4501                	li	a0,0
    2332:	6165                	addi	sp,sp,112
    2334:	8082                	ret
    2336:	04000793          	li	a5,64
    233a:	e31c                	sd	a5,0(a4)
    233c:	4785                	li	a5,1
    233e:	e71c                	sd	a5,8(a4)
    2340:	00020613          	mv	a2,tp
    2344:	eb10                	sd	a2,16(a4)
    2346:	ef14                	sd	a3,24(a4)
    2348:	0ff0000f          	fence
    234c:	fffff697          	auipc	a3,0xfffff
    2350:	cf468693          	addi	a3,a3,-780 # 1040 <fromhost>
    2354:	fffff797          	auipc	a5,0xfffff
    2358:	cae7b623          	sd	a4,-852(a5) # 1000 <tohost>
    235c:	629c                	ld	a5,0(a3)
    235e:	dffd                	beqz	a5,235c <putchar+0x5a>
    2360:	fffff797          	auipc	a5,0xfffff
    2364:	ce07b023          	sd	zero,-800(a5) # 1040 <fromhost>
    2368:	0ff0000f          	fence
    236c:	04022023          	sw	zero,64(tp) # 40 <buflen.1>
    2370:	631c                	ld	a5,0(a4)
    2372:	4501                	li	a0,0
    2374:	6165                	addi	sp,sp,112
    2376:	8082                	ret

0000000000002378 <setStats>:
    2378:	b0002773          	csrr	a4,mcycle
    237c:	9a818793          	addi	a5,gp,-1624 # 3790 <counters>
    2380:	c511                	beqz	a0,238c <setStats+0x14>
    2382:	e398                	sd	a4,0(a5)
    2384:	b0202773          	csrr	a4,minstret
    2388:	e798                	sd	a4,8(a5)
    238a:	8082                	ret
    238c:	6394                	ld	a3,0(a5)
    238e:	00001617          	auipc	a2,0x1
    2392:	26a60613          	addi	a2,a2,618 # 35f8 <verify_data+0x4c0>
    2396:	eb90                	sd	a2,16(a5)
    2398:	8f15                	sub	a4,a4,a3
    239a:	e398                	sd	a4,0(a5)
    239c:	b0202773          	csrr	a4,minstret
    23a0:	6794                	ld	a3,8(a5)
    23a2:	00001617          	auipc	a2,0x1
    23a6:	25e60613          	addi	a2,a2,606 # 3600 <verify_data+0x4c8>
    23aa:	ef90                	sd	a2,24(a5)
    23ac:	8f15                	sub	a4,a4,a3
    23ae:	e798                	sd	a4,8(a5)
    23b0:	8082                	ret

00000000000023b2 <tohost_exit>:
    23b2:	00151793          	slli	a5,a0,0x1
    23b6:	0017e793          	ori	a5,a5,1
    23ba:	fffff717          	auipc	a4,0xfffff
    23be:	c4f73323          	sd	a5,-954(a4) # 1000 <tohost>
    23c2:	a001                	j	23c2 <tohost_exit+0x10>

00000000000023c4 <handle_trap>:
    23c4:	6785                	lui	a5,0x1
    23c6:	a7378793          	addi	a5,a5,-1421 # a73 <trap_entry+0x953>
    23ca:	fffff717          	auipc	a4,0xfffff
    23ce:	c2f73b23          	sd	a5,-970(a4) # 1000 <tohost>
    23d2:	a001                	j	23d2 <handle_trap+0xe>

00000000000023d4 <exit>:
    23d4:	1141                	addi	sp,sp,-16
    23d6:	e406                	sd	ra,8(sp)
    23d8:	fdbff0ef          	jal	ra,23b2 <tohost_exit>

00000000000023dc <abort>:
    23dc:	10d00793          	li	a5,269
    23e0:	fffff717          	auipc	a4,0xfffff
    23e4:	c2f73023          	sd	a5,-992(a4) # 1000 <tohost>
    23e8:	a001                	j	23e8 <abort+0xc>

00000000000023ea <printstr>:
    23ea:	00054783          	lbu	a5,0(a0)
    23ee:	7159                	addi	sp,sp,-112
    23f0:	03f10693          	addi	a3,sp,63
    23f4:	fc06f693          	andi	a3,a3,-64
    23f8:	c3b9                	beqz	a5,243e <printstr+0x54>
    23fa:	87aa                	mv	a5,a0
    23fc:	0017c703          	lbu	a4,1(a5)
    2400:	0785                	addi	a5,a5,1
    2402:	ff6d                	bnez	a4,23fc <printstr+0x12>
    2404:	8f89                	sub	a5,a5,a0
    2406:	04000713          	li	a4,64
    240a:	e298                	sd	a4,0(a3)
    240c:	4705                	li	a4,1
    240e:	e698                	sd	a4,8(a3)
    2410:	ea88                	sd	a0,16(a3)
    2412:	ee9c                	sd	a5,24(a3)
    2414:	0ff0000f          	fence
    2418:	fffff717          	auipc	a4,0xfffff
    241c:	c2870713          	addi	a4,a4,-984 # 1040 <fromhost>
    2420:	fffff797          	auipc	a5,0xfffff
    2424:	bed7b023          	sd	a3,-1056(a5) # 1000 <tohost>
    2428:	631c                	ld	a5,0(a4)
    242a:	dffd                	beqz	a5,2428 <printstr+0x3e>
    242c:	fffff797          	auipc	a5,0xfffff
    2430:	c007ba23          	sd	zero,-1004(a5) # 1040 <fromhost>
    2434:	0ff0000f          	fence
    2438:	629c                	ld	a5,0(a3)
    243a:	6165                	addi	sp,sp,112
    243c:	8082                	ret
    243e:	4781                	li	a5,0
    2440:	b7d9                	j	2406 <printstr+0x1c>

0000000000002442 <thread_entry>:
    2442:	e101                	bnez	a0,2442 <thread_entry>
    2444:	8082                	ret

0000000000002446 <printhex>:
    2446:	7179                	addi	sp,sp,-48
    2448:	87aa                	mv	a5,a0
    244a:	f406                	sd	ra,40(sp)
    244c:	0028                	addi	a0,sp,8
    244e:	01710713          	addi	a4,sp,23
    2452:	4825                	li	a6,9
    2454:	a011                	j	2458 <printhex+0x12>
    2456:	8736                	mv	a4,a3
    2458:	00f7f613          	andi	a2,a5,15
    245c:	86b2                	mv	a3,a2
    245e:	05700593          	li	a1,87
    2462:	00c86463          	bltu	a6,a2,246a <printhex+0x24>
    2466:	03000593          	li	a1,48
    246a:	9ead                	addw	a3,a3,a1
    246c:	00d70023          	sb	a3,0(a4)
    2470:	8391                	srli	a5,a5,0x4
    2472:	fff70693          	addi	a3,a4,-1
    2476:	fee510e3          	bne	a0,a4,2456 <printhex+0x10>
    247a:	00010c23          	sb	zero,24(sp)
    247e:	f6dff0ef          	jal	ra,23ea <printstr>
    2482:	70a2                	ld	ra,40(sp)
    2484:	6145                	addi	sp,sp,48
    2486:	8082                	ret

0000000000002488 <printf>:
    2488:	711d                	addi	sp,sp,-96
    248a:	02810313          	addi	t1,sp,40
    248e:	8e2a                	mv	t3,a0
    2490:	f42e                	sd	a1,40(sp)
    2492:	f832                	sd	a2,48(sp)
    2494:	fc36                	sd	a3,56(sp)
    2496:	00000517          	auipc	a0,0x0
    249a:	e6c50513          	addi	a0,a0,-404 # 2302 <putchar>
    249e:	869a                	mv	a3,t1
    24a0:	8672                	mv	a2,t3
    24a2:	4581                	li	a1,0
    24a4:	ec06                	sd	ra,24(sp)
    24a6:	e0ba                	sd	a4,64(sp)
    24a8:	e4be                	sd	a5,72(sp)
    24aa:	e8c2                	sd	a6,80(sp)
    24ac:	ecc6                	sd	a7,88(sp)
    24ae:	e41a                	sd	t1,8(sp)
    24b0:	b6dff0ef          	jal	ra,201c <vprintfmt>
    24b4:	60e2                	ld	ra,24(sp)
    24b6:	4501                	li	a0,0
    24b8:	6125                	addi	sp,sp,96
    24ba:	8082                	ret

00000000000024bc <sprintf>:
    24bc:	711d                	addi	sp,sp,-96
    24be:	03010313          	addi	t1,sp,48
    24c2:	f022                	sd	s0,32(sp)
    24c4:	e42a                	sd	a0,8(sp)
    24c6:	f832                	sd	a2,48(sp)
    24c8:	fc36                	sd	a3,56(sp)
    24ca:	842a                	mv	s0,a0
    24cc:	862e                	mv	a2,a1
    24ce:	00000517          	auipc	a0,0x0
    24d2:	e2650513          	addi	a0,a0,-474 # 22f4 <sprintf_putch.0>
    24d6:	002c                	addi	a1,sp,8
    24d8:	869a                	mv	a3,t1
    24da:	f406                	sd	ra,40(sp)
    24dc:	e4be                	sd	a5,72(sp)
    24de:	e0ba                	sd	a4,64(sp)
    24e0:	e8c2                	sd	a6,80(sp)
    24e2:	ecc6                	sd	a7,88(sp)
    24e4:	ec1a                	sd	t1,24(sp)
    24e6:	b37ff0ef          	jal	ra,201c <vprintfmt>
    24ea:	67a2                	ld	a5,8(sp)
    24ec:	00078023          	sb	zero,0(a5)
    24f0:	6522                	ld	a0,8(sp)
    24f2:	70a2                	ld	ra,40(sp)
    24f4:	9d01                	subw	a0,a0,s0
    24f6:	7402                	ld	s0,32(sp)
    24f8:	6125                	addi	sp,sp,96
    24fa:	8082                	ret

00000000000024fc <memcpy>:
    24fc:	00b567b3          	or	a5,a0,a1
    2500:	8fd1                	or	a5,a5,a2
    2502:	8b9d                	andi	a5,a5,7
    2504:	00c506b3          	add	a3,a0,a2
    2508:	cf91                	beqz	a5,2524 <memcpy+0x28>
    250a:	962e                	add	a2,a2,a1
    250c:	87aa                	mv	a5,a0
    250e:	02d57663          	bgeu	a0,a3,253a <memcpy+0x3e>
    2512:	0005c703          	lbu	a4,0(a1)
    2516:	0585                	addi	a1,a1,1
    2518:	0785                	addi	a5,a5,1
    251a:	fee78fa3          	sb	a4,-1(a5)
    251e:	feb61ae3          	bne	a2,a1,2512 <memcpy+0x16>
    2522:	8082                	ret
    2524:	fed57fe3          	bgeu	a0,a3,2522 <memcpy+0x26>
    2528:	87aa                	mv	a5,a0
    252a:	6198                	ld	a4,0(a1)
    252c:	07a1                	addi	a5,a5,8
    252e:	05a1                	addi	a1,a1,8
    2530:	fee7bc23          	sd	a4,-8(a5)
    2534:	fed7ebe3          	bltu	a5,a3,252a <memcpy+0x2e>
    2538:	8082                	ret
    253a:	8082                	ret

000000000000253c <memset>:
    253c:	00c567b3          	or	a5,a0,a2
    2540:	8b9d                	andi	a5,a5,7
    2542:	962a                	add	a2,a2,a0
    2544:	0ff5f713          	zext.b	a4,a1
    2548:	cb91                	beqz	a5,255c <memset+0x20>
    254a:	87aa                	mv	a5,a0
    254c:	02c57763          	bgeu	a0,a2,257a <memset+0x3e>
    2550:	0785                	addi	a5,a5,1
    2552:	fee78fa3          	sb	a4,-1(a5)
    2556:	fec79de3          	bne	a5,a2,2550 <memset+0x14>
    255a:	8082                	ret
    255c:	00001797          	auipc	a5,0x1
    2560:	08c7b783          	ld	a5,140(a5) # 35e8 <verify_data+0x4b0>
    2564:	02f70733          	mul	a4,a4,a5
    2568:	fec579e3          	bgeu	a0,a2,255a <memset+0x1e>
    256c:	87aa                	mv	a5,a0
    256e:	07a1                	addi	a5,a5,8
    2570:	fee7bc23          	sd	a4,-8(a5)
    2574:	fec7ede3          	bltu	a5,a2,256e <memset+0x32>
    2578:	8082                	ret
    257a:	8082                	ret

000000000000257c <_init>:
    257c:	7171                	addi	sp,sp,-176
    257e:	9c818793          	addi	a5,gp,-1592 # 37b0 <_tdata_begin>
    2582:	e152                	sd	s4,128(sp)
    2584:	9c818a13          	addi	s4,gp,-1592 # 37b0 <_tdata_begin>
    2588:	e54e                	sd	s3,136(sp)
    258a:	40fa09b3          	sub	s3,s4,a5
    258e:	ed26                	sd	s1,152(sp)
    2590:	e94a                	sd	s2,144(sp)
    2592:	84aa                	mv	s1,a0
    2594:	892e                	mv	s2,a1
    2596:	8512                	mv	a0,tp
    2598:	85be                	mv	a1,a5
    259a:	864e                	mv	a2,s3
    259c:	f506                	sd	ra,168(sp)
    259e:	f122                	sd	s0,160(sp)
    25a0:	fcd6                	sd	s5,120(sp)
    25a2:	8a92                	mv	s5,tp
    25a4:	f59ff0ef          	jal	ra,24fc <memcpy>
    25a8:	a1c18613          	addi	a2,gp,-1508 # 3804 <_tbss_end>
    25ac:	41460633          	sub	a2,a2,s4
    25b0:	4581                	li	a1,0
    25b2:	013a8533          	add	a0,s5,s3
    25b6:	f87ff0ef          	jal	ra,253c <memset>
    25ba:	85ca                	mv	a1,s2
    25bc:	8526                	mv	a0,s1
    25be:	e85ff0ef          	jal	ra,2442 <thread_entry>
    25c2:	4581                	li	a1,0
    25c4:	4501                	li	a0,0
    25c6:	142000ef          	jal	ra,2708 <main>
    25ca:	9a818913          	addi	s2,gp,-1624 # 3790 <counters>
    25ce:	00093683          	ld	a3,0(s2)
    25d2:	03f10413          	addi	s0,sp,63
    25d6:	fc047413          	andi	s0,s0,-64
    25da:	84aa                	mv	s1,a0
    25dc:	ea85                	bnez	a3,260c <_init+0x90>
    25de:	00893683          	ld	a3,8(s2)
    25e2:	e681                	bnez	a3,25ea <_init+0x6e>
    25e4:	8526                	mv	a0,s1
    25e6:	dcdff0ef          	jal	ra,23b2 <tohost_exit>
    25ea:	89a2                	mv	s3,s0
    25ec:	01893603          	ld	a2,24(s2)
    25f0:	854e                	mv	a0,s3
    25f2:	00001597          	auipc	a1,0x1
    25f6:	03658593          	addi	a1,a1,54 # 3628 <verify_data+0x4f0>
    25fa:	ec3ff0ef          	jal	ra,24bc <sprintf>
    25fe:	99aa                	add	s3,s3,a0
    2600:	ff3402e3          	beq	s0,s3,25e4 <_init+0x68>
    2604:	8522                	mv	a0,s0
    2606:	de5ff0ef          	jal	ra,23ea <printstr>
    260a:	bfe9                	j	25e4 <_init+0x68>
    260c:	01093603          	ld	a2,16(s2)
    2610:	00001597          	auipc	a1,0x1
    2614:	01858593          	addi	a1,a1,24 # 3628 <verify_data+0x4f0>
    2618:	8522                	mv	a0,s0
    261a:	ea3ff0ef          	jal	ra,24bc <sprintf>
    261e:	00893683          	ld	a3,8(s2)
    2622:	00a409b3          	add	s3,s0,a0
    2626:	dee9                	beqz	a3,2600 <_init+0x84>
    2628:	b7d1                	j	25ec <_init+0x70>

000000000000262a <strlen>:
    262a:	00054783          	lbu	a5,0(a0)
    262e:	cb89                	beqz	a5,2640 <strlen+0x16>
    2630:	87aa                	mv	a5,a0
    2632:	0017c703          	lbu	a4,1(a5)
    2636:	0785                	addi	a5,a5,1
    2638:	ff6d                	bnez	a4,2632 <strlen+0x8>
    263a:	40a78533          	sub	a0,a5,a0
    263e:	8082                	ret
    2640:	4501                	li	a0,0
    2642:	8082                	ret

0000000000002644 <strnlen>:
    2644:	00b506b3          	add	a3,a0,a1
    2648:	87aa                	mv	a5,a0
    264a:	e589                	bnez	a1,2654 <strnlen+0x10>
    264c:	a829                	j	2666 <strnlen+0x22>
    264e:	0785                	addi	a5,a5,1
    2650:	00f68863          	beq	a3,a5,2660 <strnlen+0x1c>
    2654:	0007c703          	lbu	a4,0(a5)
    2658:	fb7d                	bnez	a4,264e <strnlen+0xa>
    265a:	40a78533          	sub	a0,a5,a0
    265e:	8082                	ret
    2660:	40a68533          	sub	a0,a3,a0
    2664:	8082                	ret
    2666:	4501                	li	a0,0
    2668:	8082                	ret

000000000000266a <strcmp>:
    266a:	00054783          	lbu	a5,0(a0)
    266e:	0585                	addi	a1,a1,1
    2670:	0505                	addi	a0,a0,1
    2672:	fff5c703          	lbu	a4,-1(a1)
    2676:	c799                	beqz	a5,2684 <strcmp+0x1a>
    2678:	fee789e3          	beq	a5,a4,266a <strcmp>
    267c:	0007851b          	sext.w	a0,a5
    2680:	9d19                	subw	a0,a0,a4
    2682:	8082                	ret
    2684:	4501                	li	a0,0
    2686:	bfed                	j	2680 <strcmp+0x16>

0000000000002688 <strcpy>:
    2688:	87aa                	mv	a5,a0
    268a:	0005c703          	lbu	a4,0(a1)
    268e:	0785                	addi	a5,a5,1
    2690:	0585                	addi	a1,a1,1
    2692:	fee78fa3          	sb	a4,-1(a5)
    2696:	fb75                	bnez	a4,268a <strcpy+0x2>
    2698:	8082                	ret

000000000000269a <atol>:
    269a:	00054703          	lbu	a4,0(a0)
    269e:	02000693          	li	a3,32
    26a2:	87aa                	mv	a5,a0
    26a4:	00d71763          	bne	a4,a3,26b2 <atol+0x18>
    26a8:	0017c703          	lbu	a4,1(a5)
    26ac:	0785                	addi	a5,a5,1
    26ae:	fed70de3          	beq	a4,a3,26a8 <atol+0xe>
    26b2:	02d00693          	li	a3,45
    26b6:	04d70263          	beq	a4,a3,26fa <atol+0x60>
    26ba:	02b00693          	li	a3,43
    26be:	02d70763          	beq	a4,a3,26ec <atol+0x52>
    26c2:	0007c683          	lbu	a3,0(a5)
    26c6:	4581                	li	a1,0
    26c8:	c69d                	beqz	a3,26f6 <atol+0x5c>
    26ca:	4501                	li	a0,0
    26cc:	0785                	addi	a5,a5,1
    26ce:	00251713          	slli	a4,a0,0x2
    26d2:	fd06861b          	addiw	a2,a3,-48
    26d6:	0007c683          	lbu	a3,0(a5)
    26da:	972a                	add	a4,a4,a0
    26dc:	0706                	slli	a4,a4,0x1
    26de:	00e60533          	add	a0,a2,a4
    26e2:	f6ed                	bnez	a3,26cc <atol+0x32>
    26e4:	c991                	beqz	a1,26f8 <atol+0x5e>
    26e6:	40a00533          	neg	a0,a0
    26ea:	8082                	ret
    26ec:	0017c683          	lbu	a3,1(a5)
    26f0:	4581                	li	a1,0
    26f2:	0785                	addi	a5,a5,1
    26f4:	faf9                	bnez	a3,26ca <atol+0x30>
    26f6:	4501                	li	a0,0
    26f8:	8082                	ret
    26fa:	0017c683          	lbu	a3,1(a5)
    26fe:	4585                	li	a1,1
    2700:	0785                	addi	a5,a5,1
    2702:	f6e1                	bnez	a3,26ca <atol+0x30>
    2704:	4501                	li	a0,0
    2706:	bfcd                	j	26f8 <atol+0x5e>

.text.startup 區段的反組譯：

0000000000002708 <main>:
    2708:	b2010113          	addi	sp,sp,-1248
    270c:	4c813823          	sd	s0,1232(sp)
    2710:	4c913423          	sd	s1,1224(sp)
    2714:	4d213023          	sd	s2,1216(sp)
    2718:	00000497          	auipc	s1,0x0
    271c:	0c048493          	addi	s1,s1,192 # 27d8 <input1_data>
    2720:	00000917          	auipc	s2,0x0
    2724:	56890913          	addi	s2,s2,1384 # 2c88 <input2_data>
    2728:	840a                	mv	s0,sp
    272a:	4b313c23          	sd	s3,1208(sp)
    272e:	4c113c23          	sd	ra,1240(sp)
    2732:	89ca                	mv	s3,s2
    2734:	8622                	mv	a2,s0
    2736:	86ca                	mv	a3,s2
    2738:	87a6                	mv	a5,s1
    273a:	438c                	lw	a1,0(a5)
    273c:	4298                	lw	a4,0(a3)
    273e:	0791                	addi	a5,a5,4
    2740:	0691                	addi	a3,a3,4
    2742:	9f2d                	addw	a4,a4,a1
    2744:	c218                	sw	a4,0(a2)
    2746:	0611                	addi	a2,a2,4
    2748:	ff3799e3          	bne	a5,s3,273a <main+0x32>
    274c:	4505                	li	a0,1
    274e:	c2bff0ef          	jal	ra,2378 <setStats>
    2752:	8722                	mv	a4,s0
    2754:	4094                	lw	a3,0(s1)
    2756:	00092783          	lw	a5,0(s2)
    275a:	0491                	addi	s1,s1,4
    275c:	0911                	addi	s2,s2,4
    275e:	9fb5                	addw	a5,a5,a3
    2760:	c31c                	sw	a5,0(a4)
    2762:	0711                	addi	a4,a4,4
    2764:	ff3498e3          	bne	s1,s3,2754 <main+0x4c>
    2768:	4501                	li	a0,0
    276a:	c0fff0ef          	jal	ra,2378 <setStats>
    276e:	00001797          	auipc	a5,0x1
    2772:	9ca78793          	addi	a5,a5,-1590 # 3138 <verify_data>
    2776:	4501                	li	a0,0
    2778:	12c00813          	li	a6,300
    277c:	a039                	j	278a <main+0x82>
    277e:	2509                	addiw	a0,a0,2
    2780:	00b71e63          	bne	a4,a1,279c <main+0x94>
    2784:	07a1                	addi	a5,a5,8
    2786:	03050863          	beq	a0,a6,27b6 <main+0xae>
    278a:	4014                	lw	a3,0(s0)
    278c:	4390                	lw	a2,0(a5)
    278e:	4058                	lw	a4,4(s0)
    2790:	43cc                	lw	a1,4(a5)
    2792:	0421                	addi	s0,s0,8
    2794:	2701                	sext.w	a4,a4
    2796:	fed604e3          	beq	a2,a3,277e <main+0x76>
    279a:	2505                	addiw	a0,a0,1
    279c:	4d813083          	ld	ra,1240(sp)
    27a0:	4d013403          	ld	s0,1232(sp)
    27a4:	4c813483          	ld	s1,1224(sp)
    27a8:	4c013903          	ld	s2,1216(sp)
    27ac:	4b813983          	ld	s3,1208(sp)
    27b0:	4e010113          	addi	sp,sp,1248
    27b4:	8082                	ret
    27b6:	4501                	li	a0,0
    27b8:	b7d5                	j	279c <main+0x94>
    27ba:	1141                	addi	sp,sp,-16
    27bc:	00001517          	auipc	a0,0x1
    27c0:	e5450513          	addi	a0,a0,-428 # 3610 <verify_data+0x4d8>
    27c4:	e406                	sd	ra,8(sp)
    27c6:	c25ff0ef          	jal	ra,23ea <printstr>
    27ca:	60a2                	ld	ra,8(sp)
    27cc:	557d                	li	a0,-1
    27ce:	0141                	addi	sp,sp,16
    27d0:	8082                	ret

.data 區段的反組譯：

00000000000027d8 <input1_data>:
    27d8:	0029                	c.nop	10
    27da:	0000                	unimp
    27dc:	0341                	addi	t1,t1,16
    27de:	0000                	unimp
    27e0:	0234                	addi	a3,sp,264
    27e2:	0000                	unimp
    27e4:	000000bb          	addw	ra,zero,zero
    27e8:	02ed                	addi	t0,t0,27
    27ea:	0000                	unimp
    27ec:	015e                	slli	sp,sp,0x17
    27ee:	0000                	unimp
    27f0:	0084                	addi	s1,sp,64
    27f2:	0000                	unimp
    27f4:	03b5                	addi	t2,t2,13
    27f6:	0000                	unimp
    27f8:	0248                	addi	a0,sp,260
    27fa:	0000                	unimp
    27fc:	0325                	addi	t1,t1,9
    27fe:	0000                	unimp
    2800:	026d                	addi	tp,tp,27 # 1b <_start+0x1b>
    2802:	0000                	unimp
    2804:	0006                	c.slli	zero,0x1
    2806:	0000                	unimp
    2808:	000003a3          	sb	zero,7(zero) # 7 <_start+0x7>
    280c:	037a                	slli	t1,t1,0x1e
    280e:	0000                	unimp
    2810:	0188                	addi	a0,sp,192
    2812:	0000                	unimp
    2814:	02b6                	slli	t0,t0,0xd
    2816:	0000                	unimp
    2818:	03c1                	addi	t2,t2,16
    281a:	0000                	unimp
    281c:	006e                	c.slli	zero,0x1b
    281e:	0000                	unimp
    2820:	0074                	addi	a3,sp,12
    2822:	0000                	unimp
    2824:	0128                	addi	a0,sp,136
    2826:	0000                	unimp
    2828:	01aa                	slli	gp,gp,0xa
    282a:	0000                	unimp
    282c:	013a                	slli	sp,sp,0xe
    282e:	0000                	unimp
    2830:	00000293          	li	t0,0
    2834:	0306                	slli	t1,t1,0x1
    2836:	0000                	unimp
    2838:	0000013f 000002a6 	.8byte	0x2a60000013f
    2840:	0000036b          	.4byte	0x36b
    2844:	0178                	addi	a4,sp,140
    2846:	0000                	unimp
    2848:	01da                	slli	gp,gp,0x16
    284a:	0000                	unimp
    284c:	03aa                	slli	t2,t2,0xa
    284e:	0000                	unimp
    2850:	0000021b          	sext.w	tp,zero
    2854:	0239                	addi	tp,tp,14 # e <_start+0xe>
    2856:	0000                	unimp
    2858:	000000cb          	fnmsub.s	ft1,ft0,ft0,ft0,rne
    285c:	0118                	addi	a4,sp,128
    285e:	0000                	unimp
    2860:	000002f7          	.4byte	0x2f7
    2864:	025e                	slli	tp,tp,0x17
    2866:	0000                	unimp
    2868:	01ff                	.2byte	0x1ff
    286a:	0000                	unimp
    286c:	0291                	addi	t0,t0,4
    286e:	0000                	unimp
    2870:	000000c3          	fmadd.s	ft1,ft0,ft0,ft0,rne
    2874:	0051                	c.nop	20
    2876:	0000                	unimp
    2878:	0000010b          	.4byte	0x10b
    287c:	00e5                	addi	ra,ra,25
    287e:	0000                	unimp
    2880:	0151                	addi	sp,sp,20
    2882:	0000                	unimp
    2884:	03b0                	addi	a2,sp,456
    2886:	0000                	unimp
    2888:	0386                	slli	t2,t2,0x1
    288a:	0000                	unimp
    288c:	00f1                	addi	ra,ra,28
    288e:	0000                	unimp
    2890:	0391                	addi	t2,t2,4
    2892:	0000                	unimp
    2894:	033a                	slli	t1,t1,0xe
    2896:	0000                	unimp
    2898:	03a5                	addi	t2,t2,9
    289a:	0000                	unimp
    289c:	03d9                	addi	t2,t2,22
    289e:	0000                	unimp
    28a0:	000000c3          	fmadd.s	ft1,ft0,ft0,ft0,rne
    28a4:	03c0                	addi	s0,sp,452
    28a6:	0000                	unimp
    28a8:	0236                	slli	tp,tp,0xd
    28aa:	0000                	unimp
    28ac:	015e                	slli	sp,sp,0x17
    28ae:	0000                	unimp
    28b0:	0289                	addi	t0,t0,2
    28b2:	0000                	unimp
    28b4:	0291                	addi	t0,t0,4
    28b6:	0000                	unimp
    28b8:	00b5                	addi	ra,ra,13
    28ba:	0000                	unimp
    28bc:	0000006f          	j	28bc <input1_data+0xe4>
    28c0:	0000035b          	.4byte	0x35b
    28c4:	0041                	c.nop	16
    28c6:	0000                	unimp
    28c8:	0120                	addi	s0,sp,136
    28ca:	0000                	unimp
    28cc:	015d                	addi	sp,sp,23
    28ce:	0000                	unimp
    28d0:	008d                	addi	ra,ra,3
    28d2:	0000                	unimp
    28d4:	0389                	addi	t2,t2,2
    28d6:	0000                	unimp
    28d8:	0376                	slli	t1,t1,0x1d
    28da:	0000                	unimp
    28dc:	0108                	addi	a0,sp,128
    28de:	0000                	unimp
    28e0:	0240                	addi	s0,sp,260
    28e2:	0000                	unimp
    28e4:	000003d3          	fadd.s	ft7,ft0,ft0,rne
    28e8:	02f9                	addi	t0,t0,30
    28ea:	0000                	unimp
    28ec:	00f1                	addi	ra,ra,28
    28ee:	0000                	unimp
    28f0:	01de                	slli	gp,gp,0x17
    28f2:	0000                	unimp
    28f4:	000001f3          	.4byte	0x1f3
    28f8:	00000193          	li	gp,0
    28fc:	00de                	slli	ra,ra,0x17
    28fe:	0000                	unimp
    2900:	01bc                	addi	a5,sp,200
    2902:	0000                	unimp
    2904:	02d1                	addi	t0,t0,20
    2906:	0000                	unimp
    2908:	02a4                	addi	s1,sp,328
    290a:	0000                	unimp
    290c:	013d                	addi	sp,sp,15
    290e:	0000                	unimp
    2910:	00e0                	addi	s0,sp,76
    2912:	0000                	unimp
    2914:	03a9                	addi	t2,t2,10
    2916:	0000                	unimp
    2918:	0120                	addi	s0,sp,136
    291a:	0000                	unimp
    291c:	00000077          	.4byte	0x77
    2920:	00000267          	jalr	tp,zero # 0 <_start>
    2924:	025e                	slli	tp,tp,0x17
    2926:	0000                	unimp
    2928:	0185                	addi	gp,gp,1 # 3de9 <__global_pointer$+0x1>
    292a:	0000                	unimp
    292c:	015f 0000 01c7      	.byte	0x5f, 0x01, 0x00, 0x00, 0xc7, 0x01
    2932:	0000                	unimp
    2934:	0116                	slli	sp,sp,0x5
    2936:	0000                	unimp
    2938:	0000016f          	jal	sp,2938 <input1_data+0x160>
    293c:	0166                	slli	sp,sp,0x19
    293e:	0000                	unimp
    2940:	0248                	addi	a0,sp,260
    2942:	0000                	unimp
    2944:	003e                	c.slli	zero,0xf
    2946:	0000                	unimp
    2948:	03d9                	addi	t2,t2,22
    294a:	0000                	unimp
    294c:	00000193          	li	gp,0
    2950:	015a                	slli	sp,sp,0x16
    2952:	0000                	unimp
    2954:	0205                	addi	tp,tp,1 # 1 <_start+0x1>
    2956:	0000                	unimp
    2958:	0000022f          	.4byte	0x22f
    295c:	038c                	addi	a1,sp,448
    295e:	0000                	unimp
    2960:	00000307          	.4byte	0x307
    2964:	00ff                	.2byte	0xff
    2966:	0000                	unimp
    2968:	030a                	slli	t1,t1,0x2
    296a:	0000                	unimp
    296c:	0256                	slli	tp,tp,0x15
    296e:	0000                	unimp
    2970:	0000008f          	.4byte	0x8f
    2974:	0021                	c.nop	8
    2976:	0000                	unimp
    2978:	007d                	c.nop	31
    297a:	0000                	unimp
    297c:	03ad                	addi	t2,t2,11
    297e:	0000                	unimp
    2980:	03a5                	addi	t2,t2,9
    2982:	0000                	unimp
    2984:	031f 0000 0229      	.byte	0x1f, 0x03, 0x00, 0x00, 0x29, 0x02
    298a:	0000                	unimp
    298c:	000001af          	.4byte	0x1af
    2990:	0288                	addi	a0,sp,320
    2992:	0000                	unimp
    2994:	03b8                	addi	a4,sp,456
    2996:	0000                	unimp
    2998:	011f 0000 0013      	.byte	0x1f, 0x01, 0x00, 0x00, 0x13, 0x00
    299e:	0000                	unimp
    29a0:	0031                	c.nop	12
    29a2:	0000                	unimp
    29a4:	0056                	c.slli	zero,0x15
    29a6:	0000                	unimp
    29a8:	005f 0000 01b9      	.byte	0x5f, 0x00, 0x00, 0x00, 0xb9, 0x01
    29ae:	0000                	unimp
    29b0:	0000024b          	fnmsub.s	ft4,ft0,ft0,ft0,rne
    29b4:	0266                	slli	tp,tp,0x19
    29b6:	0000                	unimp
    29b8:	017e                	slli	sp,sp,0x1f
    29ba:	0000                	unimp
    29bc:	0118                	addi	a4,sp,128
    29be:	0000                	unimp
    29c0:	0328                	addi	a0,sp,392
    29c2:	0000                	unimp
    29c4:	000003cb          	fnmsub.s	ft7,ft0,ft0,ft0,rne
    29c8:	00000333          	add	t1,zero,zero
    29cc:	0158                	addi	a4,sp,132
    29ce:	0000                	unimp
    29d0:	01c2                	slli	gp,gp,0x10
    29d2:	0000                	unimp
    29d4:	0200                	addi	s0,sp,256
    29d6:	0000                	unimp
    29d8:	03c5                	addi	t2,t2,17
    29da:	0000                	unimp
    29dc:	0000015b          	.4byte	0x15b
    29e0:	0328                	addi	a0,sp,392
    29e2:	0000                	unimp
    29e4:	0372                	slli	t1,t1,0x1c
    29e6:	0000                	unimp
    29e8:	0219                	addi	tp,tp,6 # 6 <_start+0x6>
    29ea:	0000                	unimp
    29ec:	03b2                	slli	t2,t2,0xc
    29ee:	0000                	unimp
    29f0:	02bd                	addi	t0,t0,15
    29f2:	0000                	unimp
    29f4:	0164                	addi	s1,sp,140
    29f6:	0000                	unimp
    29f8:	00000237          	lui	tp,0x0
    29fc:	0000037b          	.4byte	0x37b
    2a00:	0016                	c.slli	zero,0x5
    2a02:	0000                	unimp
    2a04:	0238                	addi	a4,sp,264
    2a06:	0000                	unimp
    2a08:	0299                	addi	t0,t0,6
    2a0a:	0000                	unimp
    2a0c:	000001a7          	.4byte	0x1a7
    2a10:	01b2                	slli	gp,gp,0xc
    2a12:	0000                	unimp
    2a14:	009e                	slli	ra,ra,0x7
    2a16:	0000                	unimp
    2a18:	0002                	c.slli64	zero
    2a1a:	0000                	unimp
    2a1c:	0054                	addi	a3,sp,4
    2a1e:	0000                	unimp
    2a20:	000000f7          	.4byte	0xf7
    2a24:	0031                	c.nop	12
    2a26:	0000                	unimp
    2a28:	000001b3          	add	gp,zero,zero
    2a2c:	0318                	addi	a4,sp,384
    2a2e:	0000                	unimp
    2a30:	0365                	addi	t1,t1,25
    2a32:	0000                	unimp
    2a34:	01e6                	slli	gp,gp,0x19
    2a36:	0000                	unimp
    2a38:	019e                	slli	gp,gp,0x7
    2a3a:	0000                	unimp
    2a3c:	0171                	addi	sp,sp,28
    2a3e:	0000                	unimp
    2a40:	0224                	addi	s1,sp,264
    2a42:	0000                	unimp
    2a44:	0206                	slli	tp,tp,0x1
    2a46:	0000                	unimp
    2a48:	0378                	addi	a4,sp,396
    2a4a:	0000                	unimp
    2a4c:	02aa                	slli	t0,t0,0xa
    2a4e:	0000                	unimp
    2a50:	011c                	addi	a5,sp,128
    2a52:	0000                	unimp
    2a54:	0108                	addi	a0,sp,128
    2a56:	0000                	unimp
    2a58:	000001f3          	.4byte	0x1f3
    2a5c:	0122                	slli	sp,sp,0x8
    2a5e:	0000                	unimp
    2a60:	0381                	addi	t2,t2,0
    2a62:	0000                	unimp
    2a64:	000000d7          	.4byte	0xd7
    2a68:	000002db          	.4byte	0x2db
    2a6c:	02b0                	addi	a2,sp,328
    2a6e:	0000                	unimp
    2a70:	000000fb          	.4byte	0xfb
    2a74:	0312                	slli	t1,t1,0x4
    2a76:	0000                	unimp
    2a78:	0000022b          	.4byte	0x22b
    2a7c:	012e                	slli	sp,sp,0xb
    2a7e:	0000                	unimp
    2a80:	0210                	addi	a2,sp,256
    2a82:	0000                	unimp
    2a84:	0220                	addi	s0,sp,264
    2a86:	0000                	unimp
    2a88:	0142                	slli	sp,sp,0x10
    2a8a:	0000                	unimp
    2a8c:	000003b3          	add	t2,zero,zero
    2a90:	011f 0000 0338      	.byte	0x1f, 0x01, 0x00, 0x00, 0x38, 0x03
    2a96:	0000                	unimp
    2a98:	0130                	addi	a2,sp,136
    2a9a:	0000                	unimp
    2a9c:	0314                	addi	a3,sp,384
    2a9e:	0000                	unimp
    2aa0:	02dd                	addi	t0,t0,23
    2aa2:	0000                	unimp
    2aa4:	000003bf 0000016e 	.8byte	0x16e000003bf
    2aac:	02d2                	slli	t0,t0,0x14
    2aae:	0000                	unimp
    2ab0:	0126                	slli	sp,sp,0x9
    2ab2:	0000                	unimp
    2ab4:	000003cf          	fnmadd.s	ft7,ft0,ft0,ft0,rne
    2ab8:	028d                	addi	t0,t0,3
    2aba:	0000                	unimp
    2abc:	02ec                	addi	a1,sp,332
    2abe:	0000                	unimp
    2ac0:	0000005b          	.4byte	0x5b
    2ac4:	017a                	slli	sp,sp,0x1e
    2ac6:	0000                	unimp
    2ac8:	0069                	c.nop	26
    2aca:	0000                	unimp
    2acc:	0066                	c.slli	zero,0x19
    2ace:	0000                	unimp
    2ad0:	017d                	addi	sp,sp,31
    2ad2:	0000                	unimp
    2ad4:	0000028b          	.4byte	0x28b
    2ad8:	0339                	addi	t1,t1,14
    2ada:	0000                	unimp
    2adc:	0348                	addi	a0,sp,388
    2ade:	0000                	unimp
    2ae0:	0164                	addi	s1,sp,140
    2ae2:	0000                	unimp
    2ae4:	0094                	addi	a3,sp,64
    2ae6:	0000                	unimp
    2ae8:	0036                	c.slli	zero,0xd
    2aea:	0000                	unimp
    2aec:	008c                	addi	a1,sp,64
    2aee:	0000                	unimp
    2af0:	000003bb          	addw	t2,zero,zero
    2af4:	00000157          	.4byte	0x157
    2af8:	0215                	addi	tp,tp,5 # 5 <_start+0x5>
    2afa:	0000                	unimp
    2afc:	02f5                	addi	t0,t0,29
    2afe:	0000                	unimp
    2b00:	0209                	addi	tp,tp,2 # 2 <_start+0x2>
    2b02:	0000                	unimp
    2b04:	0345                	addi	t1,t1,17
    2b06:	0000                	unimp
    2b08:	0250                	addi	a2,sp,260
    2b0a:	0000                	unimp
    2b0c:	000d                	c.nop	3
    2b0e:	0000                	unimp
    2b10:	00ad                	addi	ra,ra,11
    2b12:	0000                	unimp
    2b14:	0000003f 00000079 	.8byte	0x790000003f
    2b1c:	0085                	addi	ra,ra,1
    2b1e:	0000                	unimp
    2b20:	02f6                	slli	t0,t0,0x1d
    2b22:	0000                	unimp
    2b24:	0174                	addi	a3,sp,140
    2b26:	0000                	unimp
    2b28:	000003b7          	lui	t2,0x0
    2b2c:	00000027          	.4byte	0x27
    2b30:	0081                	addi	ra,ra,0
    2b32:	0000                	unimp
    2b34:	006e                	c.slli	zero,0x1b
    2b36:	0000                	unimp
    2b38:	0000034f          	fnmadd.s	ft6,ft0,ft0,ft0,rne
    2b3c:	01b5                	addi	gp,gp,13 # 3df5 <__global_pointer$+0xd>
    2b3e:	0000                	unimp
    2b40:	00ff                	.2byte	0xff
    2b42:	0000                	unimp
    2b44:	010d                	addi	sp,sp,3
    2b46:	0000                	unimp
    2b48:	0199                	addi	gp,gp,6 # 3dee <__global_pointer$+0x6>
    2b4a:	0000                	unimp
    2b4c:	0274                	addi	a3,sp,268
    2b4e:	0000                	unimp
    2b50:	0000018f          	.4byte	0x18f
    2b54:	0225                	addi	tp,tp,9 # 9 <_start+0x9>
    2b56:	0000                	unimp
    2b58:	02f1                	addi	t0,t0,28
    2b5a:	0000                	unimp
    2b5c:	0234                	addi	a3,sp,264
    2b5e:	0000                	unimp
    2b60:	000000ab          	.4byte	0xab
    2b64:	00000013          	nop
    2b68:	000002d7          	.4byte	0x2d7
    2b6c:	01f5                	addi	gp,gp,29 # 3e05 <__global_pointer$+0x1d>
    2b6e:	0000                	unimp
    2b70:	0309                	addi	t1,t1,2
    2b72:	0000                	unimp
    2b74:	0000002b          	.4byte	0x2b
    2b78:	02f1                	addi	t0,t0,28
    2b7a:	0000                	unimp
    2b7c:	0051                	c.nop	20
    2b7e:	0000                	unimp
    2b80:	00ca                	slli	ra,ra,0x12
    2b82:	0000                	unimp
    2b84:	0355                	addi	t1,t1,21
    2b86:	0000                	unimp
    2b88:	0099                	addi	ra,ra,6
    2b8a:	0000                	unimp
    2b8c:	02f8                	addi	a4,sp,332
    2b8e:	0000                	unimp
    2b90:	0165                	addi	sp,sp,25
    2b92:	0000                	unimp
    2b94:	000003af          	.4byte	0x3af
    2b98:	039a                	slli	t2,t2,0x6
    2b9a:	0000                	unimp
    2b9c:	0148                	addi	a0,sp,132
    2b9e:	0000                	unimp
    2ba0:	01f0                	addi	a2,sp,204
    2ba2:	0000                	unimp
    2ba4:	01ba                	slli	gp,gp,0xe
    2ba6:	0000                	unimp
    2ba8:	0204                	addi	s1,sp,256
    2baa:	0000                	unimp
    2bac:	0281                	addi	t0,t0,0
    2bae:	0000                	unimp
    2bb0:	0114                	addi	a3,sp,128
    2bb2:	0000                	unimp
    2bb4:	0312                	slli	t1,t1,0x4
    2bb6:	0000                	unimp
    2bb8:	0071                	c.nop	28
    2bba:	0000                	unimp
    2bbc:	034a                	slli	t1,t1,0x12
    2bbe:	0000                	unimp
    2bc0:	0000038b          	.4byte	0x38b
    2bc4:	00000113          	li	sp,0
    2bc8:	00ed                	addi	ra,ra,27
    2bca:	0000                	unimp
    2bcc:	0020                	addi	s0,sp,8
    2bce:	0000                	unimp
    2bd0:	0310                	addi	a2,sp,384
    2bd2:	0000                	unimp
    2bd4:	0235                	addi	tp,tp,13 # d <_start+0xd>
    2bd6:	0000                	unimp
    2bd8:	0165                	addi	sp,sp,25
    2bda:	0000                	unimp
    2bdc:	00000323          	sb	zero,6(zero) # 6 <_start+0x6>
    2be0:	00000333          	add	t1,zero,zero
    2be4:	000002ef          	jal	t0,2be4 <input1_data+0x40c>
    2be8:	0118                	addi	a4,sp,128
    2bea:	0000                	unimp
    2bec:	0055                	c.nop	21
    2bee:	0000                	unimp
    2bf0:	01ca                	slli	gp,gp,0x12
    2bf2:	0000                	unimp
    2bf4:	01c6                	slli	gp,gp,0x11
    2bf6:	0000                	unimp
    2bf8:	02c6                	slli	t0,t0,0x11
    2bfa:	0000                	unimp
    2bfc:	000001cb          	fnmsub.s	ft3,ft0,ft0,ft0,rne
    2c00:	0029                	c.nop	10
    2c02:	0000                	unimp
    2c04:	00fd                	addi	ra,ra,31
    2c06:	0000                	unimp
    2c08:	0179                	addi	sp,sp,30
    2c0a:	0000                	unimp
    2c0c:	01fc                	addi	a5,sp,204
    2c0e:	0000                	unimp
    2c10:	02bc                	addi	a5,sp,328
    2c12:	0000                	unimp
    2c14:	035c                	addi	a5,sp,388
    2c16:	0000                	unimp
    2c18:	01e0                	addi	s0,sp,204
    2c1a:	0000                	unimp
    2c1c:	02e5                	addi	t0,t0,25
    2c1e:	0000                	unimp
    2c20:	000001f3          	.4byte	0x1f3
    2c24:	02c5                	addi	t0,t0,17
    2c26:	0000                	unimp
    2c28:	0031                	c.nop	12
    2c2a:	0000                	unimp
    2c2c:	00000173          	.4byte	0x173
    2c30:	0369                	addi	t1,t1,26
    2c32:	0000                	unimp
    2c34:	03b1                	addi	t2,t2,12 # c <_start+0xc>
    2c36:	0000                	unimp
    2c38:	03e0                	addi	s0,sp,460
    2c3a:	0000                	unimp
    2c3c:	020e                	slli	tp,tp,0x3
    2c3e:	0000                	unimp
    2c40:	02d1                	addi	t0,t0,20
    2c42:	0000                	unimp
    2c44:	000001b3          	add	gp,zero,zero
    2c48:	00e8                	addi	a0,sp,76
    2c4a:	0000                	unimp
    2c4c:	01f1                	addi	gp,gp,28 # 3e04 <__global_pointer$+0x1c>
    2c4e:	0000                	unimp
    2c50:	02b9                	addi	t0,t0,14
    2c52:	0000                	unimp
    2c54:	001e                	c.slli	zero,0x7
    2c56:	0000                	unimp
    2c58:	015c                	addi	a5,sp,132
    2c5a:	0000                	unimp
    2c5c:	00fa                	slli	ra,ra,0x1e
    2c5e:	0000                	unimp
    2c60:	015e                	slli	sp,sp,0x17
    2c62:	0000                	unimp
    2c64:	00fa                	slli	ra,ra,0x1e
    2c66:	0000                	unimp
    2c68:	023d                	addi	tp,tp,15 # f <_start+0xf>
    2c6a:	0000                	unimp
    2c6c:	0310                	addi	a2,sp,384
    2c6e:	0000                	unimp
    2c70:	02ed                	addi	t0,t0,27
    2c72:	0000                	unimp
    2c74:	01f6                	slli	gp,gp,0x1d
    2c76:	0000                	unimp
    2c78:	00000337          	lui	t1,0x0
    2c7c:	033a                	slli	t1,t1,0xe
    2c7e:	0000                	unimp
    2c80:	00aa                	slli	ra,ra,0xa
    2c82:	0000                	unimp
    2c84:	00a0                	addi	s0,sp,72
    2c86:	0000                	unimp

0000000000002c88 <input2_data>:
    2c88:	01c6                	slli	gp,gp,0x11
    2c8a:	0000                	unimp
    2c8c:	0000014f          	fnmadd.s	ft2,ft0,ft0,ft0,rne
    2c90:	0001                	nop
    2c92:	0000                	unimp
    2c94:	03dd                	addi	t2,t2,23
    2c96:	0000                	unimp
    2c98:	016d                	addi	sp,sp,27
    2c9a:	0000                	unimp
    2c9c:	023c                	addi	a5,sp,264
    2c9e:	0000                	unimp
    2ca0:	0040                	addi	s0,sp,4
    2ca2:	0000                	unimp
    2ca4:	0099                	addi	ra,ra,6
    2ca6:	0000                	unimp
    2ca8:	00d8                	addi	a4,sp,68
    2caa:	0000                	unimp
    2cac:	008c                	addi	a1,sp,64
    2cae:	0000                	unimp
    2cb0:	00d2                	slli	ra,ra,0x14
    2cb2:	0000                	unimp
    2cb4:	023c                	addi	a5,sp,264
    2cb6:	0000                	unimp
    2cb8:	00000153          	fadd.s	ft2,ft0,ft0,rne
    2cbc:	0251                	addi	tp,tp,20 # 14 <_start+0x14>
    2cbe:	0000                	unimp
    2cc0:	0382                	c.slli64	t2
    2cc2:	0000                	unimp
    2cc4:	00e4                	addi	s1,sp,76
    2cc6:	0000                	unimp
    2cc8:	000c                	.2byte	0xc
    2cca:	0000                	unimp
    2ccc:	00000373          	.4byte	0x373
    2cd0:	02ee                	slli	t0,t0,0x1b
    2cd2:	0000                	unimp
    2cd4:	0286                	slli	t0,t0,0x1
    2cd6:	0000                	unimp
    2cd8:	01f4                	addi	a3,sp,204
    2cda:	0000                	unimp
    2cdc:	01b4                	addi	a3,sp,200
    2cde:	0000                	unimp
    2ce0:	02bd                	addi	t0,t0,15
    2ce2:	0000                	unimp
    2ce4:	032c                	addi	a1,sp,392
    2ce6:	0000                	unimp
    2ce8:	03d5                	addi	t2,t2,21
    2cea:	0000                	unimp
    2cec:	0096                	slli	ra,ra,0x5
    2cee:	0000                	unimp
    2cf0:	02b8                	addi	a4,sp,328
    2cf2:	0000                	unimp
    2cf4:	0234                	addi	a3,sp,264
    2cf6:	0000                	unimp
    2cf8:	0110                	addi	a2,sp,128
    2cfa:	0000                	unimp
    2cfc:	0102                	c.slli64	sp
    2cfe:	0000                	unimp
    2d00:	00000287          	.4byte	0x287
    2d04:	01fd                	addi	gp,gp,31 # 3e07 <__global_pointer$+0x1f>
    2d06:	0000                	unimp
    2d08:	0058                	addi	a4,sp,4
    2d0a:	0000                	unimp
    2d0c:	000002bf 0000029d 	.8byte	0x29d000002bf
    2d14:	00000177          	.4byte	0x177
    2d18:	00000227          	.4byte	0x227
    2d1c:	03a8                	addi	a0,sp,456
    2d1e:	0000                	unimp
    2d20:	0250                	addi	a2,sp,260
    2d22:	0000                	unimp
    2d24:	0239                	addi	tp,tp,14 # e <_start+0xe>
    2d26:	0000                	unimp
    2d28:	03b8                	addi	a4,sp,456
    2d2a:	0000                	unimp
    2d2c:	0320                	addi	s0,sp,392
    2d2e:	0000                	unimp
    2d30:	0248                	addi	a0,sp,260
    2d32:	0000                	unimp
    2d34:	00000283          	lb	t0,0(zero) # 0 <_start>
    2d38:	0170                	addi	a2,sp,140
    2d3a:	0000                	unimp
    2d3c:	01e9                	addi	gp,gp,26 # 3e02 <__global_pointer$+0x1a>
    2d3e:	0000                	unimp
    2d40:	0148                	addi	a0,sp,132
    2d42:	0000                	unimp
    2d44:	0139                	addi	sp,sp,14
    2d46:	0000                	unimp
    2d48:	0250                	addi	a2,sp,260
    2d4a:	0000                	unimp
    2d4c:	0184                	addi	s1,sp,192
    2d4e:	0000                	unimp
    2d50:	021f 0000 0289      	.byte	0x1f, 0x02, 0x00, 0x00, 0x89, 0x02
    2d56:	0000                	unimp
    2d58:	000003d3          	fadd.s	ft7,ft0,ft0,rne
    2d5c:	03e5                	addi	t2,t2,25
    2d5e:	0000                	unimp
    2d60:	032e                	slli	t1,t1,0xb
    2d62:	0000                	unimp
    2d64:	0000004f          	fnmadd.s	ft0,ft0,ft0,ft0,rne
    2d68:	00d0                	addi	a2,sp,68
    2d6a:	0000                	unimp
    2d6c:	03e6                	slli	t2,t2,0x19
    2d6e:	0000                	unimp
    2d70:	0275                	addi	tp,tp,29 # 1d <_start+0x1d>
    2d72:	0000                	unimp
    2d74:	0000034f          	fnmadd.s	ft6,ft0,ft0,ft0,rne
    2d78:	02c0                	addi	s0,sp,324
    2d7a:	0000                	unimp
    2d7c:	03e5                	addi	t2,t2,25
    2d7e:	0000                	unimp
    2d80:	00fd                	addi	ra,ra,31
    2d82:	0000                	unimp
    2d84:	000002cb          	fnmsub.s	ft5,ft0,ft0,ft0,rne
    2d88:	01ae                	slli	gp,gp,0xb
    2d8a:	0000                	unimp
    2d8c:	019f 0000 021a      	.byte	0x9f, 0x01, 0x00, 0x00, 0x1a, 0x02
    2d92:	0000                	unimp
    2d94:	02bc                	addi	a5,sp,328
    2d96:	0000                	unimp
    2d98:	0004                	.2byte	0x4
    2d9a:	0000                	unimp
    2d9c:	01ee                	slli	gp,gp,0x1b
    2d9e:	0000                	unimp
    2da0:	0064                	addi	s1,sp,12
    2da2:	0000                	unimp
    2da4:	0360                	addi	s0,sp,396
    2da6:	0000                	unimp
    2da8:	02b5                	addi	t0,t0,13
    2daa:	0000                	unimp
    2dac:	01a0                	addi	s0,sp,200
    2dae:	0000                	unimp
    2db0:	0128                	addi	a0,sp,136
    2db2:	0000                	unimp
    2db4:	011d                	addi	sp,sp,7
    2db6:	0000                	unimp
    2db8:	026c                	addi	a1,sp,268
    2dba:	0000                	unimp
    2dbc:	004e                	c.slli	zero,0x13
    2dbe:	0000                	unimp
    2dc0:	015f 0000 021c      	.byte	0x5f, 0x01, 0x00, 0x00, 0x1c, 0x02
    2dc6:	0000                	unimp
    2dc8:	0286                	slli	t0,t0,0x1
    2dca:	0000                	unimp
    2dcc:	00a9                	addi	ra,ra,10
    2dce:	0000                	unimp
    2dd0:	0000020f          	.4byte	0x20f
    2dd4:	0121                	addi	sp,sp,8
    2dd6:	0000                	unimp
    2dd8:	031c                	addi	a5,sp,384
    2dda:	0000                	unimp
    2ddc:	0321                	addi	t1,t1,8 # 8 <_start+0x8>
    2dde:	0000                	unimp
    2de0:	02d0                	addi	a2,sp,324
    2de2:	0000                	unimp
    2de4:	02f6                	slli	t0,t0,0x1d
    2de6:	0000                	unimp
    2de8:	02e9                	addi	t0,t0,26
    2dea:	0000                	unimp
    2dec:	005c                	addi	a5,sp,4
    2dee:	0000                	unimp
    2df0:	03dd                	addi	t2,t2,23
    2df2:	0000                	unimp
    2df4:	0000010f          	.4byte	0x10f
    2df8:	0355                	addi	t1,t1,21
    2dfa:	0000                	unimp
    2dfc:	0314                	addi	a3,sp,384
    2dfe:	0000                	unimp
    2e00:	00000213          	li	tp,0
    2e04:	00de                	slli	ra,ra,0x17
    2e06:	0000                	unimp
    2e08:	01cd                	addi	gp,gp,19 # 3dfb <__global_pointer$+0x13>
    2e0a:	0000                	unimp
    2e0c:	00f1                	addi	ra,ra,28
    2e0e:	0000                	unimp
    2e10:	0166                	slli	sp,sp,0x19
    2e12:	0000                	unimp
    2e14:	014c                	addi	a1,sp,132
    2e16:	0000                	unimp
    2e18:	02ac                	addi	a1,sp,328
    2e1a:	0000                	unimp
    2e1c:	02e4                	addi	s1,sp,332
    2e1e:	0000                	unimp
    2e20:	01be                	slli	gp,gp,0xf
    2e22:	0000                	unimp
    2e24:	00000137          	lui	sp,0x0
    2e28:	000002e7          	jalr	t0,zero # 0 <_start>
    2e2c:	022d                	addi	tp,tp,11 # b <_start+0xb>
    2e2e:	0000                	unimp
    2e30:	01df 0000 022d      	.byte	0xdf, 0x01, 0x00, 0x00, 0x2d, 0x02
    2e36:	0000                	unimp
    2e38:	039d                	addi	t2,t2,7
    2e3a:	0000                	unimp
    2e3c:	031c                	addi	a5,sp,384
    2e3e:	0000                	unimp
    2e40:	0165                	addi	sp,sp,25 # 19 <_start+0x19>
    2e42:	0000                	unimp
    2e44:	0000037b          	.4byte	0x37b
    2e48:	029a                	slli	t0,t0,0x6
    2e4a:	0000                	unimp
    2e4c:	0202                	c.slli64	tp
    2e4e:	0000                	unimp
    2e50:	022d                	addi	tp,tp,11 # b <_start+0xb>
    2e52:	0000                	unimp
    2e54:	0366                	slli	t1,t1,0x19
    2e56:	0000                	unimp
    2e58:	0355                	addi	t1,t1,21
    2e5a:	0000                	unimp
    2e5c:	01b8                	addi	a4,sp,200
    2e5e:	0000                	unimp
    2e60:	003d                	c.nop	15
    2e62:	0000                	unimp
    2e64:	02a6                	slli	t0,t0,0x9
    2e66:	0000                	unimp
    2e68:	018c                	addi	a1,sp,192
    2e6a:	0000                	unimp
    2e6c:	0009                	c.nop	2
    2e6e:	0000                	unimp
    2e70:	0011                	c.nop	4
    2e72:	0000                	unimp
    2e74:	00aa                	slli	ra,ra,0xa
    2e76:	0000                	unimp
    2e78:	00000123          	sb	zero,2(zero) # 2 <_start+0x2>
    2e7c:	017c                	addi	a5,sp,140
    2e7e:	0000                	unimp
    2e80:	0218                	addi	a4,sp,256
    2e82:	0000                	unimp
    2e84:	00b9                	addi	ra,ra,14
    2e86:	0000                	unimp
    2e88:	0395                	addi	t2,t2,5
    2e8a:	0000                	unimp
    2e8c:	0000021b          	sext.w	tp,zero
    2e90:	000003d7          	.4byte	0x3d7
    2e94:	00000377          	.4byte	0x377
    2e98:	0036                	c.slli	zero,0xd
    2e9a:	0000                	unimp
    2e9c:	0264                	addi	s1,sp,268
    2e9e:	0000                	unimp
    2ea0:	000003b7          	lui	t2,0x0
    2ea4:	01df 0000 0097      	.byte	0xdf, 0x01, 0x00, 0x00, 0x97, 0x00
    2eaa:	0000                	unimp
    2eac:	00000007          	.4byte	0x7
    2eb0:	0281                	addi	t0,t0,0
    2eb2:	0000                	unimp
    2eb4:	0000014f          	fnmadd.s	ft2,ft0,ft0,ft0,rne
    2eb8:	02da                	slli	t0,t0,0x16
    2eba:	0000                	unimp
    2ebc:	005f 0000 02d8      	.byte	0x5f, 0x00, 0x00, 0x00, 0xd8, 0x02
    2ec2:	0000                	unimp
    2ec4:	0118                	addi	a4,sp,128
    2ec6:	0000                	unimp
    2ec8:	0000018b          	.4byte	0x18b
    2ecc:	02b0                	addi	a2,sp,328
    2ece:	0000                	unimp
    2ed0:	0000038f          	.4byte	0x38f
    2ed4:	01dc                	addi	a5,sp,196
    2ed6:	0000                	unimp
    2ed8:	0000032f          	.4byte	0x32f
    2edc:	02d9                	addi	t0,t0,22
    2ede:	0000                	unimp
    2ee0:	0109                	addi	sp,sp,2
    2ee2:	0000                	unimp
    2ee4:	007f                	.2byte	0x7f
    2ee6:	0000                	unimp
    2ee8:	00ec                	addi	a1,sp,76
    2eea:	0000                	unimp
    2eec:	00d6                	slli	ra,ra,0x15
    2eee:	0000                	unimp
    2ef0:	00b4                	addi	a3,sp,72
    2ef2:	0000                	unimp
    2ef4:	0006                	c.slli	zero,0x1
    2ef6:	0000                	unimp
    2ef8:	000001f7          	.4byte	0x1f7
    2efc:	0254                	addi	a3,sp,260
    2efe:	0000                	unimp
    2f00:	00ad                	addi	ra,ra,11
    2f02:	0000                	unimp
    2f04:	00000283          	lb	t0,0(zero) # 0 <_start>
    2f08:	015a                	slli	sp,sp,0x16
    2f0a:	0000                	unimp
    2f0c:	00000257          	.4byte	0x257
    2f10:	0044                	addi	s1,sp,4
    2f12:	0000                	unimp
    2f14:	0351                	addi	t1,t1,20
    2f16:	0000                	unimp
    2f18:	0292                	slli	t0,t0,0x4
    2f1a:	0000                	unimp
    2f1c:	0000026b          	.4byte	0x26b
    2f20:	0079                	c.nop	30
    2f22:	0000                	unimp
    2f24:	00000083          	lb	ra,0(zero) # 0 <_start>
    2f28:	033c                	addi	a5,sp,392
    2f2a:	0000                	unimp
    2f2c:	0000029b          	sext.w	t0,zero
    2f30:	01b1                	addi	gp,gp,12 # 3df4 <__global_pointer$+0xc>
    2f32:	0000                	unimp
    2f34:	000001e7          	jalr	gp,zero # 0 <_start>
    2f38:	02f1                	addi	t0,t0,28
    2f3a:	0000                	unimp
    2f3c:	007d                	c.nop	31
    2f3e:	0000                	unimp
    2f40:	0272                	slli	tp,tp,0x1c
    2f42:	0000                	unimp
    2f44:	000e                	c.slli	zero,0x3
    2f46:	0000                	unimp
    2f48:	000a                	c.slli	zero,0x2
    2f4a:	0000                	unimp
    2f4c:	00000193          	li	gp,0
    2f50:	006a                	c.slli	zero,0x1a
    2f52:	0000                	unimp
    2f54:	000002bf 00000332 	.8byte	0x332000002bf
    2f5c:	03c4                	addi	s1,sp,452
    2f5e:	0000                	unimp
    2f60:	0196                	slli	gp,gp,0x5
    2f62:	0000                	unimp
    2f64:	036a                	slli	t1,t1,0x1a
    2f66:	0000                	unimp
    2f68:	0358                	addi	a4,sp,388
    2f6a:	0000                	unimp
    2f6c:	0056                	c.slli	zero,0x15
    2f6e:	0000                	unimp
    2f70:	003c                	addi	a5,sp,8
    2f72:	0000                	unimp
    2f74:	0294                	addi	a3,sp,320
    2f76:	0000                	unimp
    2f78:	0000029b          	sext.w	t0,zero
    2f7c:	0099                	addi	ra,ra,6
    2f7e:	0000                	unimp
    2f80:	0079                	c.nop	30
    2f82:	0000                	unimp
    2f84:	0062                	c.slli	zero,0x18
    2f86:	0000                	unimp
    2f88:	019c                	addi	a5,sp,192
    2f8a:	0000                	unimp
    2f8c:	00ec                	addi	a1,sp,76
    2f8e:	0000                	unimp
    2f90:	000c                	.2byte	0xc
    2f92:	0000                	unimp
    2f94:	000001a7          	.4byte	0x1a7
    2f98:	03c5                	addi	t2,t2,17 # 11 <_start+0x11>
    2f9a:	0000                	unimp
    2f9c:	00d8                	addi	a4,sp,68
    2f9e:	0000                	unimp
    2fa0:	026d                	addi	tp,tp,27 # 1b <_start+0x1b>
    2fa2:	0000                	unimp
    2fa4:	0169                	addi	sp,sp,26
    2fa6:	0000                	unimp
    2fa8:	0399                	addi	t2,t2,6
    2faa:	0000                	unimp
    2fac:	000002cb          	fnmsub.s	ft5,ft0,ft0,ft0,rne
    2fb0:	00000287          	.4byte	0x287
    2fb4:	0000012b          	.4byte	0x12b
    2fb8:	0376                	slli	t1,t1,0x1d
    2fba:	0000                	unimp
    2fbc:	02aa                	slli	t0,t0,0xa
    2fbe:	0000                	unimp
    2fc0:	0024                	addi	s1,sp,8
    2fc2:	0000                	unimp
    2fc4:	01ed                	addi	gp,gp,27 # 3e03 <__global_pointer$+0x1b>
    2fc6:	0000                	unimp
    2fc8:	00000227          	.4byte	0x227
    2fcc:	0219                	addi	tp,tp,6 # 6 <_start+0x6>
    2fce:	0000                	unimp
    2fd0:	03c9                	addi	t2,t2,18
    2fd2:	0000                	unimp
    2fd4:	00000283          	lb	t0,0(zero) # 0 <_start>
    2fd8:	01b2                	slli	gp,gp,0xc
    2fda:	0000                	unimp
    2fdc:	019f 0000 012f      	.byte	0x9f, 0x01, 0x00, 0x00, 0x2f, 0x01
    2fe2:	0000                	unimp
    2fe4:	01b6                	slli	gp,gp,0xd
    2fe6:	0000                	unimp
    2fe8:	035c                	addi	a5,sp,388
    2fea:	0000                	unimp
    2fec:	000000cb          	fnmsub.s	ft1,ft0,ft0,ft0,rne
    2ff0:	01de                	slli	gp,gp,0x17
    2ff2:	0000                	unimp
    2ff4:	03dc                	addi	a5,sp,452
    2ff6:	0000                	unimp
    2ff8:	000002a3          	sb	zero,5(zero) # 5 <_start+0x5>
    2ffc:	000002cf          	fnmadd.s	ft5,ft0,ft0,ft0,rne
    3000:	03de                	slli	t2,t2,0x17
    3002:	0000                	unimp
    3004:	0152                	slli	sp,sp,0x14
    3006:	0000                	unimp
    3008:	01c2                	slli	gp,gp,0x10
    300a:	0000                	unimp
    300c:	0279                	addi	tp,tp,30 # 1e <_start+0x1e>
    300e:	0000                	unimp
    3010:	0000009b          	sext.w	ra,zero
    3014:	0286                	slli	t0,t0,0x1
    3016:	0000                	unimp
    3018:	01c4                	addi	s1,sp,196
    301a:	0000                	unimp
    301c:	000001ab          	.4byte	0x1ab
    3020:	01fd                	addi	gp,gp,31 # 3e07 <__global_pointer$+0x1f>
    3022:	0000                	unimp
    3024:	03dc                	addi	a5,sp,452
    3026:	0000                	unimp
    3028:	01aa                	slli	gp,gp,0xa
    302a:	0000                	unimp
    302c:	000c                	.2byte	0xc
    302e:	0000                	unimp
    3030:	000001e3          	beqz	zero,3832 <_tbss_end+0x2e>
    3034:	008e                	slli	ra,ra,0x3
    3036:	0000                	unimp
    3038:	00000153          	fadd.s	ft2,ft0,ft0,rne
    303c:	0186                	slli	gp,gp,0x1
    303e:	0000                	unimp
    3040:	0032                	c.slli	zero,0xc
    3042:	0000                	unimp
    3044:	000000ab          	.4byte	0xab
    3048:	0259                	addi	tp,tp,22 # 16 <_start+0x16>
    304a:	0000                	unimp
    304c:	0069                	c.nop	26
    304e:	0000                	unimp
    3050:	03c8                	addi	a0,sp,452
    3052:	0000                	unimp
    3054:	0079                	c.nop	30
    3056:	0000                	unimp
    3058:	0000036f          	jal	t1,3058 <input2_data+0x3d0>
    305c:	0051                	c.nop	20
    305e:	0000                	unimp
    3060:	0366                	slli	t1,t1,0x19
    3062:	0000                	unimp
    3064:	0258                	addi	a4,sp,260
    3066:	0000                	unimp
    3068:	0000025b          	.4byte	0x25b
    306c:	00000367          	jalr	t1,zero # 0 <_start>
    3070:	00000377          	.4byte	0x377
    3074:	0262                	slli	tp,tp,0x18
    3076:	0000                	unimp
    3078:	0194                	addi	a3,sp,192
    307a:	0000                	unimp
    307c:	00ea                	slli	ra,ra,0x1a
    307e:	0000                	unimp
    3080:	02e9                	addi	t0,t0,26
    3082:	0000                	unimp
    3084:	020e                	slli	tp,tp,0x3
    3086:	0000                	unimp
    3088:	00000113          	li	sp,0
    308c:	01b9                	addi	gp,gp,14 # 3df6 <__global_pointer$+0xe>
    308e:	0000                	unimp
    3090:	00e2                	slli	ra,ra,0x18
    3092:	0000                	unimp
    3094:	02f0                	addi	a2,sp,332
    3096:	0000                	unimp
    3098:	000003af          	.4byte	0x3af
    309c:	02d6                	slli	t0,t0,0x15
    309e:	0000                	unimp
    30a0:	02c5                	addi	t0,t0,17
    30a2:	0000                	unimp
    30a4:	00c9                	addi	ra,ra,18
    30a6:	0000                	unimp
    30a8:	0036                	c.slli	zero,0xd
    30aa:	0000                	unimp
    30ac:	02f6                	slli	t0,t0,0x1d
    30ae:	0000                	unimp
    30b0:	0035                	c.nop	13
    30b2:	0000                	unimp
    30b4:	018d                	addi	gp,gp,3 # 3deb <__global_pointer$+0x3>
    30b6:	0000                	unimp
    30b8:	0029                	c.nop	10
    30ba:	0000                	unimp
    30bc:	008d                	addi	ra,ra,3
    30be:	0000                	unimp
    30c0:	01a0                	addi	s0,sp,200
    30c2:	0000                	unimp
    30c4:	000002eb          	.4byte	0x2eb
    30c8:	000000db          	.4byte	0xdb
    30cc:	01de                	slli	gp,gp,0x17
    30ce:	0000                	unimp
    30d0:	0302                	c.slli64	t1
    30d2:	0000                	unimp
    30d4:	00b4                	addi	a3,sp,72
    30d6:	0000                	unimp
    30d8:	01e2                	slli	gp,gp,0x18
    30da:	0000                	unimp
    30dc:	000002b3          	add	t0,zero,zero
    30e0:	02d5                	addi	t0,t0,21
    30e2:	0000                	unimp
    30e4:	00ad                	addi	ra,ra,11
    30e6:	0000                	unimp
    30e8:	00ba                	slli	ra,ra,0xe
    30ea:	0000                	unimp
    30ec:	0392                	slli	t2,t2,0x4
    30ee:	0000                	unimp
    30f0:	0001                	nop
    30f2:	0000                	unimp
    30f4:	000003c3          	fmadd.s	ft7,ft0,ft0,ft0,rne
    30f8:	000000f7          	.4byte	0xf7
    30fc:	01d0                	addi	a2,sp,196
    30fe:	0000                	unimp
    3100:	016a                	slli	sp,sp,0x1a
    3102:	0000                	unimp
    3104:	0209                	addi	tp,tp,2 # 2 <_start+0x2>
    3106:	0000                	unimp
    3108:	00e9                	addi	ra,ra,26
    310a:	0000                	unimp
    310c:	0078                	addi	a4,sp,12
    310e:	0000                	unimp
    3110:	0028                	addi	a0,sp,8
    3112:	0000                	unimp
    3114:	0000030b          	.4byte	0x30b
    3118:	000000c3          	fmadd.s	ft1,ft0,ft0,ft0,rne
    311c:	00a1                	addi	ra,ra,8
    311e:	0000                	unimp
    3120:	000002e7          	jalr	t0,zero # 0 <_start>
    3124:	000001b7          	lui	gp,0x0
    3128:	00000163          	beqz	zero,312a <input2_data+0x4a2>
    312c:	00000193          	li	gp,0
    3130:	008d                	addi	ra,ra,3
    3132:	0000                	unimp
    3134:	0279                	addi	tp,tp,30 # 1e <_start+0x1e>
    3136:	0000                	unimp

0000000000003138 <verify_data>:
    3138:	000001ef          	jal	gp,3138 <verify_data>
    313c:	0490                	addi	a2,sp,576
    313e:	0000                	unimp
    3140:	0235                	addi	tp,tp,13 # d <_start+0xd>
    3142:	0000                	unimp
    3144:	0498                	addi	a4,sp,576
    3146:	0000                	unimp
    3148:	045a                	slli	s0,s0,0x16
    314a:	0000                	unimp
    314c:	039a                	slli	t2,t2,0x6
    314e:	0000                	unimp
    3150:	00c4                	addi	s1,sp,68
    3152:	0000                	unimp
    3154:	044e                	slli	s0,s0,0x13
    3156:	0000                	unimp
    3158:	0320                	addi	s0,sp,392
    315a:	0000                	unimp
    315c:	03b1                	addi	t2,t2,12
    315e:	0000                	unimp
    3160:	0000033f 00000242 	.8byte	0x2420000033f
    3168:	04f6                	slli	s1,s1,0x1d
    316a:	0000                	unimp
    316c:	000005cb          	fnmsub.s	fa1,ft0,ft0,ft0,rne
    3170:	050a                	slli	a0,a0,0x2
    3172:	0000                	unimp
    3174:	039a                	slli	t2,t2,0x6
    3176:	0000                	unimp
    3178:	03cd                	addi	t2,t2,19
    317a:	0000                	unimp
    317c:	03e1                	addi	t2,t2,24
    317e:	0000                	unimp
    3180:	0362                	slli	t1,t1,0x18
    3182:	0000                	unimp
    3184:	03ae                	slli	t2,t2,0xb
    3186:	0000                	unimp
    3188:	039e                	slli	t2,t2,0x7
    318a:	0000                	unimp
    318c:	02ee                	slli	t0,t0,0x1b
    318e:	0000                	unimp
    3190:	0550                	addi	a2,sp,644
    3192:	0000                	unimp
    3194:	0632                	slli	a2,a2,0xc
    3196:	0000                	unimp
    3198:	0514                	addi	a3,sp,640
    319a:	0000                	unimp
    319c:	033c                	addi	a5,sp,392
    319e:	0000                	unimp
    31a0:	00000623          	sb	zero,12(zero) # c <_start+0xc>
    31a4:	03ac                	addi	a1,sp,456
    31a6:	0000                	unimp
    31a8:	02ea                	slli	t0,t0,0x1a
    31aa:	0000                	unimp
    31ac:	04ac                	addi	a1,sp,584
    31ae:	0000                	unimp
    31b0:	04a2                	slli	s1,s1,0x8
    31b2:	0000                	unimp
    31b4:	0436                	slli	s0,s0,0xd
    31b6:	0000                	unimp
    31b8:	00000123          	sb	zero,2(zero) # 2 <_start+0x2>
    31bc:	000003d7          	.4byte	0x3d7
    31c0:	0594                	addi	a3,sp,704
    31c2:	0000                	unimp
    31c4:	03d5                	addi	t2,t2,21
    31c6:	0000                	unimp
    31c8:	0426                	slli	s0,s0,0x9
    31ca:	0000                	unimp
    31cc:	0639                	addi	a2,a2,14
    31ce:	0000                	unimp
    31d0:	00000313          	li	t1,0
    31d4:	028a                	slli	t0,t0,0x2
    31d6:	0000                	unimp
    31d8:	000004c3          	fmadd.s	fs1,ft0,ft0,ft0,rne
    31dc:	0405                	addi	s0,s0,1
    31de:	0000                	unimp
    31e0:	0399                	addi	t2,t2,6
    31e2:	0000                	unimp
    31e4:	00000633          	add	a2,zero,zero
    31e8:	04f6                	slli	s1,s1,0x1d
    31ea:	0000                	unimp
    31ec:	02da                	slli	t0,t0,0x16
    31ee:	0000                	unimp
    31f0:	04d9                	addi	s1,s1,22
    31f2:	0000                	unimp
    31f4:	00000473          	.4byte	0x473
    31f8:	05f5                	addi	a1,a1,29
    31fa:	0000                	unimp
    31fc:	055d                	addi	a0,a0,23
    31fe:	0000                	unimp
    3200:	02e2                	slli	t0,t0,0x18
    3202:	0000                	unimp
    3204:	0649                	addi	a2,a2,18
    3206:	0000                	unimp
    3208:	0609                	addi	a2,a2,2
    320a:	0000                	unimp
    320c:	00000543          	fmadd.s	fa0,ft0,ft0,ft0,rne
    3210:	000005b7          	lui	a1,0x0
    3214:	02e0                	addi	s0,sp,332
    3216:	0000                	unimp
    3218:	0185                	addi	gp,gp,1 # 1 <_start+0x1>
    321a:	0000                	unimp
    321c:	0455                	addi	s0,s0,21
    321e:	0000                	unimp
    3220:	05d0                	addi	a2,sp,708
    3222:	0000                	unimp
    3224:	0390                	addi	a2,sp,448
    3226:	0000                	unimp
    3228:	03e0                	addi	s0,sp,460
    322a:	0000                	unimp
    322c:	0542                	slli	a0,a0,0x10
    322e:	0000                	unimp
    3230:	018a                	slli	gp,gp,0x2
    3232:	0000                	unimp
    3234:	0654                	addi	a3,sp,772
    3236:	0000                	unimp
    3238:	0524                	addi	s1,sp,648
    323a:	0000                	unimp
    323c:	000002a7          	.4byte	0x2a7
    3240:	045a                	slli	s0,s0,0x16
    3242:	0000                	unimp
    3244:	0000068f          	.4byte	0x68f
    3248:	02fd                	addi	t0,t0,31
    324a:	0000                	unimp
    324c:	02df 0000 0242      	.byte	0xdf, 0x02, 0x00, 0x00, 0x42, 0x02
    3252:	0000                	unimp
    3254:	00000553          	fadd.s	fa0,ft0,ft0,rne
    3258:	0448                	addi	a0,sp,516
    325a:	0000                	unimp
    325c:	027e                	slli	tp,tp,0x1f
    325e:	0000                	unimp
    3260:	02e4                	addi	s1,sp,332
    3262:	0000                	unimp
    3264:	03ee                	slli	t2,t2,0x1b
    3266:	0000                	unimp
    3268:	0510                	addi	a2,sp,640
    326a:	0000                	unimp
    326c:	0000018b          	.4byte	0x18b
    3270:	0000023f 000005c5 	.8byte	0x5c50000023f
    3278:	03a6                	slli	t2,t2,0x9
    327a:	0000                	unimp
    327c:	0120                	addi	s0,sp,136
    327e:	0000                	unimp
    3280:	0476                	slli	s0,s0,0x1d
    3282:	0000                	unimp
    3284:	037f                	.2byte	0x37f
    3286:	0000                	unimp
    3288:	04a1                	addi	s1,s1,8
    328a:	0000                	unimp
    328c:	0480                	addi	s0,sp,576
    328e:	0000                	unimp
    3290:	00000497          	auipc	s1,0x0
    3294:	040c                	addi	a1,sp,512
    3296:	0000                	unimp
    3298:	0458                	addi	a4,sp,516
    329a:	0000                	unimp
    329c:	01c2                	slli	gp,gp,0x10
    329e:	0000                	unimp
    32a0:	0625                	addi	a2,a2,9
    32a2:	0000                	unimp
    32a4:	014d                	addi	sp,sp,19
    32a6:	0000                	unimp
    32a8:	072e                	slli	a4,a4,0xb
    32aa:	0000                	unimp
    32ac:	000004a7          	.4byte	0x4a7
    32b0:	036d                	addi	t1,t1,27
    32b2:	0000                	unimp
    32b4:	000002e3          	beqz	zero,3ab8 <_tbss_end+0x2b4>
    32b8:	03fc                	addi	a5,sp,460
    32ba:	0000                	unimp
    32bc:	047d                	addi	s0,s0,31
    32be:	0000                	unimp
    32c0:	046d                	addi	s0,s0,27
    32c2:	0000                	unimp
    32c4:	0000024b          	fnmsub.s	ft4,ft0,ft0,ft0,rne
    32c8:	05b6                	slli	a1,a1,0xd
    32ca:	0000                	unimp
    32cc:	053a                	slli	a0,a0,0xe
    32ce:	0000                	unimp
    32d0:	024d                	addi	tp,tp,19 # 13 <_start+0x13>
    32d2:	0000                	unimp
    32d4:	0158                	addi	a4,sp,132
    32d6:	0000                	unimp
    32d8:	0364                	addi	s1,sp,396
    32da:	0000                	unimp
    32dc:	05da                	slli	a1,a1,0x16
    32de:	0000                	unimp
    32e0:	0584                	addi	s1,sp,704
    32e2:	0000                	unimp
    32e4:	054c                	addi	a1,sp,644
    32e6:	0000                	unimp
    32e8:	05c6                	slli	a1,a1,0x11
    32ea:	0000                	unimp
    32ec:	000004cb          	fnmsub.s	fs1,ft0,ft0,ft0,rne
    32f0:	03ed                	addi	t2,t2,27
    32f2:	0000                	unimp
    32f4:	00000733          	add	a4,zero,zero
    32f8:	03b9                	addi	t2,t2,14
    32fa:	0000                	unimp
    32fc:	0215                	addi	tp,tp,5 # 5 <_start+0x5>
    32fe:	0000                	unimp
    3300:	025e                	slli	tp,tp,0x17
    3302:	0000                	unimp
    3304:	03bc                	addi	a5,sp,456
    3306:	0000                	unimp
    3308:	03b4                	addi	a3,sp,456
    330a:	0000                	unimp
    330c:	0371                	addi	t1,t1,28
    330e:	0000                	unimp
    3310:	0288                	addi	a0,sp,320
    3312:	0000                	unimp
    3314:	050c                	addi	a1,sp,640
    3316:	0000                	unimp
    3318:	030a                	slli	t1,t1,0x2
    331a:	0000                	unimp
    331c:	0121                	addi	sp,sp,8
    331e:	0000                	unimp
    3320:	0339                	addi	t1,t1,14
    3322:	0000                	unimp
    3324:	0475                	addi	s0,s0,29
    3326:	0000                	unimp
    3328:	0456                	slli	s0,s0,0x15
    332a:	0000                	unimp
    332c:	02d4                	addi	a3,sp,324
    332e:	0000                	unimp
    3330:	03da                	slli	t2,t2,0x16
    3332:	0000                	unimp
    3334:	02b9                	addi	t0,t0,14
    3336:	0000                	unimp
    3338:	075a                	slli	a4,a4,0x16
    333a:	0000                	unimp
    333c:	0376                	slli	t1,t1,0x1d
    333e:	0000                	unimp
    3340:	06ff                	.2byte	0x6ff
    3342:	0000                	unimp
    3344:	06e9                	addi	a3,a3,26
    3346:	0000                	unimp
    3348:	0000024f          	fnmadd.s	ft4,ft0,ft0,ft0,rne
    334c:	0616                	slli	a2,a2,0x5
    334e:	0000                	unimp
    3350:	0674                	addi	a3,sp,780
    3352:	0000                	unimp
    3354:	00000343          	fmadd.s	ft6,ft0,ft0,ft0,rne
    3358:	02ce                	slli	t0,t0,0x13
    335a:	0000                	unimp
    335c:	0382                	c.slli64	t2
    335e:	0000                	unimp
    3360:	00000297          	auipc	t0,0x0
    3364:	00000387          	.4byte	0x387
    3368:	00000573          	.4byte	0x573
    336c:	0206                	slli	tp,tp,0x1
    336e:	0000                	unimp
    3370:	048a                	slli	s1,s1,0x2
    3372:	0000                	unimp
    3374:	01b6                	slli	gp,gp,0xd
    3376:	0000                	unimp
    3378:	018d                	addi	gp,gp,3 # 3deb <__global_pointer$+0x3>
    337a:	0000                	unimp
    337c:	0304                	addi	s1,sp,384
    337e:	0000                	unimp
    3380:	0486                	slli	s1,s1,0x1
    3382:	0000                	unimp
    3384:	020d                	addi	tp,tp,3 # 3 <_start+0x3>
    3386:	0000                	unimp
    3388:	04e2                	slli	s1,s1,0x18
    338a:	0000                	unimp
    338c:	05f1                	addi	a1,a1,28 # 1c <_start+0x1c>
    338e:	0000                	unimp
    3390:	046e                	slli	s0,s0,0x1b
    3392:	0000                	unimp
    3394:	0265                	addi	tp,tp,25 # 19 <_start+0x19>
    3396:	0000                	unimp
    3398:	028a                	slli	t0,t0,0x2
    339a:	0000                	unimp
    339c:	00000247          	fmsub.s	ft4,ft0,ft0,ft0,rne
    33a0:	02d8                	addi	a4,sp,324
    33a2:	0000                	unimp
    33a4:	020c                	addi	a1,sp,256
    33a6:	0000                	unimp
    33a8:	0000056f          	jal	a0,33a8 <verify_data+0x270>
    33ac:	04fe                	slli	s1,s1,0x1f
    33ae:	0000                	unimp
    33b0:	01c9                	addi	gp,gp,18 # 3dfa <__global_pointer$+0x12>
    33b2:	0000                	unimp
    33b4:	0000038b          	.4byte	0x38b
    33b8:	034d                	addi	t1,t1,19
    33ba:	0000                	unimp
    33bc:	0379                	addi	t1,t1,30
    33be:	0000                	unimp
    33c0:	03c5                	addi	t2,t2,17
    33c2:	0000                	unimp
    33c4:	0428                	addi	a0,sp,520
    33c6:	0000                	unimp
    33c8:	056d                	addi	a0,a0,27
    33ca:	0000                	unimp
    33cc:	0000051b          	sext.w	a0,zero
    33d0:	0174                	addi	a3,sp,140
    33d2:	0000                	unimp
    33d4:	0395                	addi	t2,t2,5
    33d6:	0000                	unimp
    33d8:	00000567          	jalr	a0,zero # 0 <_start>
    33dc:	03c9                	addi	t2,t2,18
    33de:	0000                	unimp
    33e0:	03c1                	addi	t2,t2,16
    33e2:	0000                	unimp
    33e4:	00000407          	.4byte	0x407
    33e8:	00000433          	add	s0,zero,zero
    33ec:	0430                	addi	a2,sp,520
    33ee:	0000                	unimp
    33f0:	0391                	addi	t2,t2,4
    33f2:	0000                	unimp
    33f4:	0346                	slli	t1,t1,0x11
    33f6:	0000                	unimp
    33f8:	013a                	slli	sp,sp,0xe
    33fa:	0000                	unimp
    33fc:	000004a7          	.4byte	0x4a7
    3400:	00000347          	fmsub.s	ft6,ft0,ft0,ft0,rne
    3404:	067e                	slli	a2,a2,0x1f
    3406:	0000                	unimp
    3408:	04a0                	addi	s0,sp,584
    340a:	0000                	unimp
    340c:	0696                	slli	a3,a3,0x5
    340e:	0000                	unimp
    3410:	02bc                	addi	a5,sp,328
    3412:	0000                	unimp
    3414:	0739                	addi	a4,a4,14
    3416:	0000                	unimp
    3418:	05e5                	addi	a1,a1,25
    341a:	0000                	unimp
    341c:	0342                	slli	t1,t1,0x10
    341e:	0000                	unimp
    3420:	00000097          	auipc	ra,0x0
    3424:	040e                	slli	s0,s0,0x3
    3426:	0000                	unimp
    3428:	0304                	addi	s1,sp,384
    342a:	0000                	unimp
    342c:	00ff                	.2byte	0xff
    342e:	0000                	unimp
    3430:	01f6                	slli	gp,gp,0x1d
    3432:	0000                	unimp
    3434:	02ed                	addi	t0,t0,27 # 337b <verify_data+0x243>
    3436:	0000                	unimp
    3438:	04d5                	addi	s1,s1,21 # 32a5 <verify_data+0x16d>
    343a:	0000                	unimp
    343c:	0434                	addi	a3,sp,520
    343e:	0000                	unimp
    3440:	0170                	addi	a2,sp,140
    3442:	0000                	unimp
    3444:	0000023b          	addw	tp,zero,zero
    3448:	000003fb          	.4byte	0x3fb
    344c:	0164                	addi	s1,sp,140
    344e:	0000                	unimp
    3450:	0628                	addi	a0,sp,776
    3452:	0000                	unimp
    3454:	02c0                	addi	s0,sp,324
    3456:	0000                	unimp
    3458:	05ae                	slli	a1,a1,0xb
    345a:	0000                	unimp
    345c:	05c0                	addi	s0,sp,708
    345e:	0000                	unimp
    3460:	0490                	addi	a2,sp,576
    3462:	0000                	unimp
    3464:	0470                	addi	a2,sp,524
    3466:	0000                	unimp
    3468:	05c6                	slli	a1,a1,0x11
    346a:	0000                	unimp
    346c:	000002b7          	lui	t0,0x0
    3470:	00d1                	addi	ra,ra,20 # 3434 <verify_data+0x2fc>
    3472:	0000                	unimp
    3474:	022c                	addi	a1,sp,264
    3476:	0000                	unimp
    3478:	02a0                	addi	s0,sp,328
    347a:	0000                	unimp
    347c:	029e                	slli	t0,t0,0x7
    347e:	0000                	unimp
    3480:	000006bf 000003f7 	.8byte	0x3f7000006bf
    3488:	0569                	addi	a0,a0,26
    348a:	0000                	unimp
    348c:	01c6                	slli	gp,gp,0x11
    348e:	0000                	unimp
    3490:	01b0                	addi	a2,sp,200
    3492:	0000                	unimp
    3494:	0224                	addi	s1,sp,264
    3496:	0000                	unimp
    3498:	000006ab          	.4byte	0x6ab
    349c:	0280                	addi	s0,sp,320
    349e:	0000                	unimp
    34a0:	02dd                	addi	t0,t0,23 # 17 <_start+0x17>
    34a2:	0000                	unimp
    34a4:	04e9                	addi	s1,s1,26
    34a6:	0000                	unimp
    34a8:	043c                	addi	a5,sp,520
    34aa:	0000                	unimp
    34ac:	00000543          	fmadd.s	fa0,ft0,ft0,ft0,rne
    34b0:	056d                	addi	a0,a0,27
    34b2:	0000                	unimp
    34b4:	00000377          	.4byte	0x377
    34b8:	000004b3          	add	s1,zero,zero
    34bc:	04ad                	addi	s1,s1,11
    34be:	0000                	unimp
    34c0:	0146                	slli	sp,sp,0x11
    34c2:	0000                	unimp
    34c4:	0299                	addi	t0,t0,6
    34c6:	0000                	unimp
    34c8:	0000049b          	sext.w	s1,zero
    34cc:	03a0                	addi	s0,sp,456
    34ce:	0000                	unimp
    34d0:	0506                	slli	a0,a0,0x1
    34d2:	0000                	unimp
    34d4:	00000407          	.4byte	0x407
    34d8:	0000049b          	sext.w	s1,zero
    34dc:	005d                	c.nop	23
    34de:	0000                	unimp
    34e0:	02ad                	addi	t0,t0,11
    34e2:	0000                	unimp
    34e4:	000003e3          	beqz	zero,3cea <_tbss_end+0x4e6>
    34e8:	01ec                	addi	a1,sp,204
    34ea:	0000                	unimp
    34ec:	047e                	slli	s0,s0,0x1f
    34ee:	0000                	unimp
    34f0:	00000197          	auipc	gp,0x0
    34f4:	045a                	slli	s0,s0,0x16
    34f6:	0000                	unimp
    34f8:	000005f3          	.4byte	0x5f3
    34fc:	01b1                	addi	gp,gp,12 # 34fc <verify_data+0x3c4>
    34fe:	0000                	unimp
    3500:	05b8                	addi	a4,sp,712
    3502:	0000                	unimp
    3504:	00000233          	add	tp,zero,zero
    3508:	00000573          	.4byte	0x573
    350c:	02d2                	slli	t0,t0,0x14
    350e:	0000                	unimp
    3510:	047a                	slli	s0,s0,0x1e
    3512:	0000                	unimp
    3514:	056a                	slli	a0,a0,0x1a
    3516:	0000                	unimp
    3518:	02cc                	addi	a1,sp,324
    351a:	0000                	unimp
    351c:	06b1                	addi	a3,a3,12
    351e:	0000                	unimp
    3520:	0702                	c.slli64	a4
    3522:	0000                	unimp
    3524:	0375                	addi	t1,t1,29
    3526:	0000                	unimp
    3528:	0281                	addi	t0,t0,0
    352a:	0000                	unimp
    352c:	010a                	slli	sp,sp,0x2
    352e:	0000                	unimp
    3530:	05f9                	addi	a1,a1,30
    3532:	0000                	unimp
    3534:	00000443          	fmadd.s	fs0,ft0,ft0,ft0,rne
    3538:	0278                	addi	a4,sp,268
    353a:	0000                	unimp
    353c:	04dc                	addi	a5,sp,580
    353e:	0000                	unimp
    3540:	0415                	addi	s0,s0,5
    3542:	0000                	unimp
    3544:	05df 0000 04c7      	.byte	0xdf, 0x05, 0x00, 0x00, 0xc7, 0x04
    354a:	0000                	unimp
    354c:	0000032b          	.4byte	0x32b
    3550:	0000048f          	.4byte	0x48f
    3554:	0000028f          	.4byte	0x28f
    3558:	02fc                	addi	a5,sp,332
    355a:	0000                	unimp
    355c:	04c1                	addi	s1,s1,16
    355e:	0000                	unimp
    3560:	005e                	c.slli	zero,0x17
    3562:	0000                	unimp
    3564:	028a                	slli	t0,t0,0x2
    3566:	0000                	unimp
    3568:	01a2                	slli	gp,gp,0x8
    356a:	0000                	unimp
    356c:	0289                	addi	t0,t0,2
    356e:	0000                	unimp
    3570:	045c                	addi	a5,sp,516
    3572:	0000                	unimp
    3574:	00000647          	fmsub.s	fa2,ft0,ft0,ft0,rne
    3578:	000002bb          	addw	t0,zero,zero
    357c:	000004c3          	fmadd.s	fs1,ft0,ft0,ft0,rne
    3580:	04f5                	addi	s1,s1,29
    3582:	0000                	unimp
    3584:	0379                	addi	t1,t1,30
    3586:	0000                	unimp
    3588:	00000213          	li	tp,0
    358c:	0426                	slli	s0,s0,0x9
    358e:	0000                	unimp
    3590:	063e                	slli	a2,a2,0xf
    3592:	0000                	unimp
    3594:	045e                	slli	s0,s0,0x17
    3596:	0000                	unimp
    3598:	049a                	slli	s1,s1,0x6
    359a:	0000                	unimp
    359c:	05a0                	addi	s0,sp,712
    359e:	0000                	unimp
    35a0:	02d2                	slli	t0,t0,0x14
    35a2:	0000                	unimp
    35a4:	0576                	slli	a0,a0,0x1d
    35a6:	0000                	unimp
    35a8:	01df 0000 03c1      	.byte	0xdf, 0x01, 0x00, 0x00, 0xc1, 0x03
    35ae:	0000                	unimp
    35b0:	00000423          	sb	zero,8(zero) # 8 <_start+0x8>
    35b4:	00000227          	.4byte	0x227
    35b8:	0245                	addi	tp,tp,17 # 11 <_start+0x11>
    35ba:	0000                	unimp
    35bc:	0172                	slli	sp,sp,0x1c
    35be:	0000                	unimp
    35c0:	0186                	slli	gp,gp,0x1
    35c2:	0000                	unimp
    35c4:	0405                	addi	s0,s0,1
    35c6:	0000                	unimp
    35c8:	0300                	addi	s0,sp,384
    35ca:	0000                	unimp
    35cc:	03b1                	addi	t2,t2,12
    35ce:	0000                	unimp
    35d0:	05d4                	addi	a3,sp,708
    35d2:	0000                	unimp
    35d4:	03ad                	addi	t2,t2,11
    35d6:	0000                	unimp
    35d8:	049a                	slli	s1,s1,0x6
    35da:	0000                	unimp
    35dc:	04cd                	addi	s1,s1,19
    35de:	0000                	unimp
    35e0:	00000137          	lui	sp,0x0
    35e4:	0319                	addi	t1,t1,6
    35e6:	0000                	unimp
